SF:/home/owner/.ghq/github.com/unhappychoice/gittype/generate_all_ascii_titles.rs
FN:20,_RNCNvCs6ZVsxm6bH5c_25generate_all_ascii_titles4main0B3_
FN:46,_RNCNvCs6ZVsxm6bH5c_25generate_all_ascii_titles4mains0_0B3_
FN:45,_RNCNvCs6ZVsxm6bH5c_25generate_all_ascii_titles4mains_0B3_
FN:10,_RNvCs6ZVsxm6bH5c_25generate_all_ascii_titles4main
FN:10,_RNvCsfSkhsc1jHZS_25generate_all_ascii_titles4main
FN:20,_RNCNvCsfSkhsc1jHZS_25generate_all_ascii_titles4main0B3_
FN:46,_RNCNvCsfSkhsc1jHZS_25generate_all_ascii_titles4mains0_0B3_
FN:45,_RNCNvCsfSkhsc1jHZS_25generate_all_ascii_titles4mains_0B3_
FNDA:0,_RNCNvCs6ZVsxm6bH5c_25generate_all_ascii_titles4main0B3_
FNDA:0,_RNCNvCs6ZVsxm6bH5c_25generate_all_ascii_titles4mains0_0B3_
FNDA:0,_RNCNvCs6ZVsxm6bH5c_25generate_all_ascii_titles4mains_0B3_
FNDA:0,_RNvCs6ZVsxm6bH5c_25generate_all_ascii_titles4main
FNDA:0,_RNvCsfSkhsc1jHZS_25generate_all_ascii_titles4main
FNDA:0,_RNCNvCsfSkhsc1jHZS_25generate_all_ascii_titles4main0B3_
FNDA:0,_RNCNvCsfSkhsc1jHZS_25generate_all_ascii_titles4mains0_0B3_
FNDA:0,_RNCNvCsfSkhsc1jHZS_25generate_all_ascii_titles4mains_0B3_
FNF:4
FNH:0
DA:10,0
DA:12,0
DA:13,0
DA:14,0
DA:15,0
DA:18,0
DA:19,0
DA:20,0
DA:21,0
DA:23,0
DA:24,0
DA:25,0
DA:28,0
DA:31,0
DA:32,0
DA:33,0
DA:36,0
DA:37,0
DA:38,0
DA:39,0
DA:41,0
DA:42,0
DA:43,0
DA:44,0
DA:45,0
DA:46,0
DA:47,0
DA:49,0
DA:50,0
DA:51,0
DA:52,0
DA:53,0
DA:54,0
DA:56,0
DA:57,0
DA:58,0
DA:59,0
DA:60,0
DA:64,0
DA:65,0
DA:66,0
DA:70,0
DA:72,0
DA:74,0
DA:75,0
DA:76,0
DA:77,0
DA:78,0
DA:79,0
DA:80,0
DA:81,0
DA:82,0
DA:83,0
DA:84,0
DA:85,0
DA:86,0
DA:87,0
DA:88,0
DA:89,0
DA:90,0
DA:93,0
DA:94,0
DA:96,0
DA:97,0
DA:98,0
DA:99,0
DA:101,0
DA:103,0
DA:104,0
DA:105,0
DA:106,0
DA:107,0
DA:110,0
DA:111,0
DA:114,0
DA:115,0
DA:116,0
DA:117,0
DA:118,0
DA:119,0
DA:120,0
DA:121,0
DA:122,0
DA:123,0
DA:124,0
DA:125,0
DA:126,0
DA:127,0
DA:128,0
DA:130,0
DA:131,0
DA:134,0
DA:135,0
DA:136,0
DA:137,0
DA:138,0
DA:141,0
DA:142,0
DA:143,0
DA:144,0
DA:146,0
DA:147,0
BRF:0
BRH:0
LF:105
LH:0
end_of_record
SF:/home/owner/.ghq/github.com/unhappychoice/gittype/src/cli/config.rs
FN:22,_RNvXNtNtCscZjyiejqBjN_7gittype3cli6configNtB2_6ConfigNtNtCs66KPHxksi63_4core7default7Default7default
FNDA:0,_RNvXNtNtCscZjyiejqBjN_7gittype3cli6configNtB2_6ConfigNtNtCs66KPHxksi63_4core7default7Default7default
FNF:1
FNH:0
DA:22,0
DA:23,0
DA:24,0
DA:25,0
DA:26,0
DA:27,0
DA:28,0
DA:29,0
DA:30,0
DA:31,0
DA:32,0
DA:33,0
DA:34,0
DA:35,0
DA:36,0
DA:37,0
DA:38,0
DA:39,0
BRF:0
BRH:0
LF:18
LH:0
end_of_record
SF:/home/owner/.ghq/github.com/unhappychoice/gittype/src/extractor/centered_progress.rs
FN:10,_RNvMNtNtCscZjyiejqBjN_7gittype9extractor17centered_progressNtB2_24CenteredProgressReporter3new
FN:16,_RNvMNtNtCscZjyiejqBjN_7gittype9extractor17centered_progressNtB2_24CenteredProgressReporter6finish
FN:26,_RNvXs_NtNtCscZjyiejqBjN_7gittype9extractor17centered_progressNtB4_24CenteredProgressReporterNtNtB6_8progress16ProgressReporter12set_progress
FN:41,_RNvXs_NtNtCscZjyiejqBjN_7gittype9extractor17centered_progressNtB4_24CenteredProgressReporterNtNtB6_8progress16ProgressReporter14update_spinner
FN:34,_RNvXs_NtNtCscZjyiejqBjN_7gittype9extractor17centered_progressNtB4_24CenteredProgressReporterNtNtB6_8progress16ProgressReporter15set_file_counts
FN:30,_RNvXs_NtNtCscZjyiejqBjN_7gittype9extractor17centered_progressNtB4_24CenteredProgressReporterNtNtB6_8progress16ProgressReporter16set_current_file
FN:45,_RNvXs_NtNtCscZjyiejqBjN_7gittype9extractor17centered_progressNtB4_24CenteredProgressReporterNtNtB6_8progress16ProgressReporter6finish
FN:22,_RNvXs_NtNtCscZjyiejqBjN_7gittype9extractor17centered_progressNtB4_24CenteredProgressReporterNtNtB6_8progress16ProgressReporter9set_phase
FNDA:0,_RNvMNtNtCscZjyiejqBjN_7gittype9extractor17centered_progressNtB2_24CenteredProgressReporter3new
FNDA:0,_RNvMNtNtCscZjyiejqBjN_7gittype9extractor17centered_progressNtB2_24CenteredProgressReporter6finish
FNDA:0,_RNvXs_NtNtCscZjyiejqBjN_7gittype9extractor17centered_progressNtB4_24CenteredProgressReporterNtNtB6_8progress16ProgressReporter12set_progress
FNDA:0,_RNvXs_NtNtCscZjyiejqBjN_7gittype9extractor17centered_progressNtB4_24CenteredProgressReporterNtNtB6_8progress16ProgressReporter14update_spinner
FNDA:0,_RNvXs_NtNtCscZjyiejqBjN_7gittype9extractor17centered_progressNtB4_24CenteredProgressReporterNtNtB6_8progress16ProgressReporter15set_file_counts
FNDA:0,_RNvXs_NtNtCscZjyiejqBjN_7gittype9extractor17centered_progressNtB4_24CenteredProgressReporterNtNtB6_8progress16ProgressReporter16set_current_file
FNDA:0,_RNvXs_NtNtCscZjyiejqBjN_7gittype9extractor17centered_progressNtB4_24CenteredProgressReporterNtNtB6_8progress16ProgressReporter6finish
FNDA:0,_RNvXs_NtNtCscZjyiejqBjN_7gittype9extractor17centered_progressNtB4_24CenteredProgressReporterNtNtB6_8progress16ProgressReporter9set_phase
FNF:8
FNH:0
DA:10,0
DA:11,0
DA:12,0
DA:13,0
DA:14,0
DA:16,0
DA:17,0
DA:18,0
DA:22,0
DA:23,0
DA:24,0
DA:26,0
DA:28,0
DA:30,0
DA:32,0
DA:34,0
DA:35,0
DA:36,0
DA:37,0
DA:38,0
DA:39,0
DA:41,0
DA:42,0
DA:43,0
DA:45,0
DA:46,0
DA:47,0
BRF:0
BRH:0
LF:27
LH:0
end_of_record
SF:/home/owner/.ghq/github.com/unhappychoice/gittype/src/extractor/challenge_converter.rs
FN:343,_RNvMs_NtNtCs4PyLZvEkasu_7gittype9extractor19challenge_converterNtB4_18ChallengeConverter18language_to_string
FN:274,_RNvMs_NtNtCs4PyLZvEkasu_7gittype9extractor19challenge_converterNtB4_18ChallengeConverter19is_natural_boundary
FN:200,_RNvMs_NtNtCs4PyLZvEkasu_7gittype9extractor19challenge_converterNtB4_18ChallengeConverter21count_code_characters
FN:223,_RNvMs_NtNtCs4PyLZvEkasu_7gittype9extractor19challenge_converterNtB4_18ChallengeConverter24find_optimal_break_point
FN:103,_RNvMs_NtNtCs4PyLZvEkasu_7gittype9extractor19challenge_converterNtB4_18ChallengeConverter25detect_language_from_path
FN:113,_RNvMs_NtNtCs4PyLZvEkasu_7gittype9extractor19challenge_converterNtB4_18ChallengeConverter25split_chunk_by_difficulty
FN:18,_RNvMs_NtNtCs4PyLZvEkasu_7gittype9extractor19challenge_converterNtB4_18ChallengeConverter26convert_chunk_to_challenge
FN:29,_RNvMs_NtNtCs4PyLZvEkasu_7gittype9extractor19challenge_converterNtB4_18ChallengeConverter28convert_chunks_to_challenges
FN:62,_RNvMs_NtNtCs4PyLZvEkasu_7gittype9extractor19challenge_converterNtB4_18ChallengeConverter29convert_with_difficulty_split
FN:77,_RNvMs_NtNtCs4PyLZvEkasu_7gittype9extractor19challenge_converterNtB4_18ChallengeConverter33convert_whole_files_to_challenges
FN:295,_RNvMs_NtNtCs4PyLZvEkasu_7gittype9extractor19challenge_converterNtB4_18ChallengeConverter36adjust_comment_ranges_for_truncation
FN:14,_RNvMs_NtNtCs4PyLZvEkasu_7gittype9extractor19challenge_converterNtB4_18ChallengeConverter3new
FN:318,_RNvMs_NtNtCs4PyLZvEkasu_7gittype9extractor19challenge_converterNtB4_18ChallengeConverter42convert_whole_files_to_zen_challenges_only
FN:8,_RNvXNtNtCs4PyLZvEkasu_7gittype9extractor19challenge_converterNtB2_18ChallengeConverterNtNtCs66KPHxksi63_4core7default7Default7default
FN:213,_RNCNvMs_NtNtCs4PyLZvEkasu_7gittype9extractor19challenge_converterNtB6_18ChallengeConverter21count_code_characters0Ba_
FN:248,_RNCNvMs_NtNtCs4PyLZvEkasu_7gittype9extractor19challenge_converterNtB6_18ChallengeConverter24find_optimal_break_point0Ba_
FN:104,_RNCNvMs_NtNtCs4PyLZvEkasu_7gittype9extractor19challenge_converterNtB6_18ChallengeConverter25detect_language_from_path0Ba_
FN:161,_RNCNvMs_NtNtCs4PyLZvEkasu_7gittype9extractor19challenge_converterNtB6_18ChallengeConverter25split_chunk_by_difficulty0Ba_
FN:302,_RNCNvMs_NtNtCs4PyLZvEkasu_7gittype9extractor19challenge_converterNtB6_18ChallengeConverter36adjust_comment_ranges_for_truncation0Ba_
FN:51,_RINvMs_NtNtCs4PyLZvEkasu_7gittype9extractor19challenge_converterNtB5_18ChallengeConverter19convert_with_filterpEB9_
FN:58,_RNCINvMs_NtNtCs4PyLZvEkasu_7gittype9extractor19challenge_converterNtB7_18ChallengeConverter19convert_with_filterpE0Bb_
FN:51,_RINvMs_NtNtCscZjyiejqBjN_7gittype9extractor19challenge_converterNtB5_18ChallengeConverter19convert_with_filterpEB9_
FN:58,_RNCINvMs_NtNtCscZjyiejqBjN_7gittype9extractor19challenge_converterNtB7_18ChallengeConverter19convert_with_filterpE0Bb_
FN:213,_RNCNvMs_NtNtCscZjyiejqBjN_7gittype9extractor19challenge_converterNtB6_18ChallengeConverter21count_code_characters0Ba_
FN:248,_RNCNvMs_NtNtCscZjyiejqBjN_7gittype9extractor19challenge_converterNtB6_18ChallengeConverter24find_optimal_break_point0Ba_
FN:104,_RNCNvMs_NtNtCscZjyiejqBjN_7gittype9extractor19challenge_converterNtB6_18ChallengeConverter25detect_language_from_path0Ba_
FN:161,_RNCNvMs_NtNtCscZjyiejqBjN_7gittype9extractor19challenge_converterNtB6_18ChallengeConverter25split_chunk_by_difficulty0Ba_
FN:302,_RNCNvMs_NtNtCscZjyiejqBjN_7gittype9extractor19challenge_converterNtB6_18ChallengeConverter36adjust_comment_ranges_for_truncation0Ba_
FN:343,_RNvMs_NtNtCscZjyiejqBjN_7gittype9extractor19challenge_converterNtB4_18ChallengeConverter18language_to_string
FN:274,_RNvMs_NtNtCscZjyiejqBjN_7gittype9extractor19challenge_converterNtB4_18ChallengeConverter19is_natural_boundary
FN:200,_RNvMs_NtNtCscZjyiejqBjN_7gittype9extractor19challenge_converterNtB4_18ChallengeConverter21count_code_characters
FN:223,_RNvMs_NtNtCscZjyiejqBjN_7gittype9extractor19challenge_converterNtB4_18ChallengeConverter24find_optimal_break_point
FN:103,_RNvMs_NtNtCscZjyiejqBjN_7gittype9extractor19challenge_converterNtB4_18ChallengeConverter25detect_language_from_path
FN:113,_RNvMs_NtNtCscZjyiejqBjN_7gittype9extractor19challenge_converterNtB4_18ChallengeConverter25split_chunk_by_difficulty
FN:18,_RNvMs_NtNtCscZjyiejqBjN_7gittype9extractor19challenge_converterNtB4_18ChallengeConverter26convert_chunk_to_challenge
FN:29,_RNvMs_NtNtCscZjyiejqBjN_7gittype9extractor19challenge_converterNtB4_18ChallengeConverter28convert_chunks_to_challenges
FN:62,_RNvMs_NtNtCscZjyiejqBjN_7gittype9extractor19challenge_converterNtB4_18ChallengeConverter29convert_with_difficulty_split
FN:77,_RNvMs_NtNtCscZjyiejqBjN_7gittype9extractor19challenge_converterNtB4_18ChallengeConverter33convert_whole_files_to_challenges
FN:295,_RNvMs_NtNtCscZjyiejqBjN_7gittype9extractor19challenge_converterNtB4_18ChallengeConverter36adjust_comment_ranges_for_truncation
FN:14,_RNvMs_NtNtCscZjyiejqBjN_7gittype9extractor19challenge_converterNtB4_18ChallengeConverter3new
FN:318,_RNvMs_NtNtCscZjyiejqBjN_7gittype9extractor19challenge_converterNtB4_18ChallengeConverter42convert_whole_files_to_zen_challenges_only
FN:8,_RNvXNtNtCscZjyiejqBjN_7gittype9extractor19challenge_converterNtB2_18ChallengeConverterNtNtCs66KPHxksi63_4core7default7Default7default
FNDA:24,_RNvMs_NtNtCs4PyLZvEkasu_7gittype9extractor19challenge_converterNtB4_18ChallengeConverter18language_to_string
FNDA:4,_RNvMs_NtNtCs4PyLZvEkasu_7gittype9extractor19challenge_converterNtB4_18ChallengeConverter19is_natural_boundary
FNDA:34,_RNvMs_NtNtCs4PyLZvEkasu_7gittype9extractor19challenge_converterNtB4_18ChallengeConverter21count_code_characters
FNDA:1,_RNvMs_NtNtCs4PyLZvEkasu_7gittype9extractor19challenge_converterNtB4_18ChallengeConverter24find_optimal_break_point
FNDA:0,_RNvMs_NtNtCs4PyLZvEkasu_7gittype9extractor19challenge_converterNtB4_18ChallengeConverter25detect_language_from_path
FNDA:44,_RNvMs_NtNtCs4PyLZvEkasu_7gittype9extractor19challenge_converterNtB4_18ChallengeConverter25split_chunk_by_difficulty
FNDA:23,_RNvMs_NtNtCs4PyLZvEkasu_7gittype9extractor19challenge_converterNtB4_18ChallengeConverter26convert_chunk_to_challenge
FNDA:3,_RNvMs_NtNtCs4PyLZvEkasu_7gittype9extractor19challenge_converterNtB4_18ChallengeConverter28convert_chunks_to_challenges
FNDA:0,_RNvMs_NtNtCs4PyLZvEkasu_7gittype9extractor19challenge_converterNtB4_18ChallengeConverter29convert_with_difficulty_split
FNDA:0,_RNvMs_NtNtCs4PyLZvEkasu_7gittype9extractor19challenge_converterNtB4_18ChallengeConverter33convert_whole_files_to_challenges
FNDA:1,_RNvMs_NtNtCs4PyLZvEkasu_7gittype9extractor19challenge_converterNtB4_18ChallengeConverter36adjust_comment_ranges_for_truncation
FNDA:5,_RNvMs_NtNtCs4PyLZvEkasu_7gittype9extractor19challenge_converterNtB4_18ChallengeConverter3new
FNDA:0,_RNvMs_NtNtCs4PyLZvEkasu_7gittype9extractor19challenge_converterNtB4_18ChallengeConverter42convert_whole_files_to_zen_challenges_only
FNDA:0,_RNvXNtNtCs4PyLZvEkasu_7gittype9extractor19challenge_converterNtB2_18ChallengeConverterNtNtCs66KPHxksi63_4core7default7Default7default
FNDA:495,_RNCNvMs_NtNtCs4PyLZvEkasu_7gittype9extractor19challenge_converterNtB6_18ChallengeConverter21count_code_characters0Ba_
FNDA:0,_RNCNvMs_NtNtCs4PyLZvEkasu_7gittype9extractor19challenge_converterNtB6_18ChallengeConverter24find_optimal_break_point0Ba_
FNDA:0,_RNCNvMs_NtNtCs4PyLZvEkasu_7gittype9extractor19challenge_converterNtB6_18ChallengeConverter25detect_language_from_path0Ba_
FNDA:3,_RNCNvMs_NtNtCs4PyLZvEkasu_7gittype9extractor19challenge_converterNtB6_18ChallengeConverter25split_chunk_by_difficulty0Ba_
FNDA:0,_RNCNvMs_NtNtCs4PyLZvEkasu_7gittype9extractor19challenge_converterNtB6_18ChallengeConverter36adjust_comment_ranges_for_truncation0Ba_
FNDA:0,_RINvMs_NtNtCs4PyLZvEkasu_7gittype9extractor19challenge_converterNtB5_18ChallengeConverter19convert_with_filterpEB9_
FNDA:0,_RNCINvMs_NtNtCs4PyLZvEkasu_7gittype9extractor19challenge_converterNtB7_18ChallengeConverter19convert_with_filterpE0Bb_
FNDA:0,_RINvMs_NtNtCscZjyiejqBjN_7gittype9extractor19challenge_converterNtB5_18ChallengeConverter19convert_with_filterpEB9_
FNDA:0,_RNCINvMs_NtNtCscZjyiejqBjN_7gittype9extractor19challenge_converterNtB7_18ChallengeConverter19convert_with_filterpE0Bb_
FNDA:0,_RNCNvMs_NtNtCscZjyiejqBjN_7gittype9extractor19challenge_converterNtB6_18ChallengeConverter21count_code_characters0Ba_
FNDA:0,_RNCNvMs_NtNtCscZjyiejqBjN_7gittype9extractor19challenge_converterNtB6_18ChallengeConverter24find_optimal_break_point0Ba_
FNDA:0,_RNCNvMs_NtNtCscZjyiejqBjN_7gittype9extractor19challenge_converterNtB6_18ChallengeConverter25detect_language_from_path0Ba_
FNDA:0,_RNCNvMs_NtNtCscZjyiejqBjN_7gittype9extractor19challenge_converterNtB6_18ChallengeConverter25split_chunk_by_difficulty0Ba_
FNDA:0,_RNCNvMs_NtNtCscZjyiejqBjN_7gittype9extractor19challenge_converterNtB6_18ChallengeConverter36adjust_comment_ranges_for_truncation0Ba_
FNDA:0,_RNvMs_NtNtCscZjyiejqBjN_7gittype9extractor19challenge_converterNtB4_18ChallengeConverter18language_to_string
FNDA:0,_RNvMs_NtNtCscZjyiejqBjN_7gittype9extractor19challenge_converterNtB4_18ChallengeConverter19is_natural_boundary
FNDA:0,_RNvMs_NtNtCscZjyiejqBjN_7gittype9extractor19challenge_converterNtB4_18ChallengeConverter21count_code_characters
FNDA:0,_RNvMs_NtNtCscZjyiejqBjN_7gittype9extractor19challenge_converterNtB4_18ChallengeConverter24find_optimal_break_point
FNDA:0,_RNvMs_NtNtCscZjyiejqBjN_7gittype9extractor19challenge_converterNtB4_18ChallengeConverter25detect_language_from_path
FNDA:0,_RNvMs_NtNtCscZjyiejqBjN_7gittype9extractor19challenge_converterNtB4_18ChallengeConverter25split_chunk_by_difficulty
FNDA:0,_RNvMs_NtNtCscZjyiejqBjN_7gittype9extractor19challenge_converterNtB4_18ChallengeConverter26convert_chunk_to_challenge
FNDA:0,_RNvMs_NtNtCscZjyiejqBjN_7gittype9extractor19challenge_converterNtB4_18ChallengeConverter28convert_chunks_to_challenges
FNDA:0,_RNvMs_NtNtCscZjyiejqBjN_7gittype9extractor19challenge_converterNtB4_18ChallengeConverter29convert_with_difficulty_split
FNDA:0,_RNvMs_NtNtCscZjyiejqBjN_7gittype9extractor19challenge_converterNtB4_18ChallengeConverter33convert_whole_files_to_challenges
FNDA:0,_RNvMs_NtNtCscZjyiejqBjN_7gittype9extractor19challenge_converterNtB4_18ChallengeConverter36adjust_comment_ranges_for_truncation
FNDA:0,_RNvMs_NtNtCscZjyiejqBjN_7gittype9extractor19challenge_converterNtB4_18ChallengeConverter3new
FNDA:0,_RNvMs_NtNtCscZjyiejqBjN_7gittype9extractor19challenge_converterNtB4_18ChallengeConverter42convert_whole_files_to_zen_challenges_only
FNDA:0,_RNvXNtNtCscZjyiejqBjN_7gittype9extractor19challenge_converterNtB2_18ChallengeConverterNtNtCs66KPHxksi63_4core7default7Default7default
FNF:21
FNH:11
DA:8,0
DA:9,0
DA:10,0
DA:14,5
DA:15,5
DA:16,5
DA:18,23
DA:19,23
DA:20,23
DA:21,23
DA:23,23
DA:24,23
DA:25,23
DA:26,23
DA:27,23
DA:29,3
DA:30,3
DA:32,14
DA:34,11
DA:35,11
DA:36,11
DA:37,11
DA:38,11
DA:39,11
DA:41,55
DA:42,44
DA:43,44
DA:44,44
DA:48,3
DA:49,3
DA:51,0
DA:52,0
DA:53,0
DA:55,0
DA:56,0
DA:57,0
DA:58,0
DA:59,0
DA:60,0
DA:62,0
DA:63,0
DA:64,0
DA:65,0
DA:66,0
DA:67,0
DA:69,0
DA:70,0
DA:71,0
DA:72,0
DA:74,0
DA:75,0
DA:77,0
DA:78,0
DA:79,0
DA:80,0
DA:82,0
DA:84,0
DA:85,0
DA:86,0
DA:87,0
DA:88,0
DA:89,0
DA:90,0
DA:91,0
DA:92,0
DA:93,0
DA:94,0
DA:95,0
DA:96,0
DA:97,0
DA:100,0
DA:101,0
DA:103,0
DA:104,0
DA:105,0
DA:106,0
DA:107,0
DA:108,0
DA:109,0
DA:111,0
DA:113,44
DA:114,44
DA:115,44
DA:116,44
DA:117,44
DA:120,44
DA:121,0
DA:122,44
DA:125,44
DA:126,11
DA:127,11
DA:128,11
DA:129,33
DA:131,33
DA:133,33
DA:134,33
DA:137,33
DA:140,33
DA:141,21
DA:142,12
DA:145,12
DA:146,11
DA:147,11
DA:149,11
DA:150,1
DA:153,1
DA:155,1
DA:158,1
DA:159,1
DA:160,1
DA:161,3
DA:162,1
DA:164,1
DA:165,1
DA:168,1
DA:169,1
DA:170,1
DA:172,1
DA:173,1
DA:176,1
DA:177,1
DA:178,1
DA:179,1
DA:181,1
DA:182,1
DA:183,1
DA:184,1
DA:185,1
DA:187,1
DA:188,1
DA:189,1
DA:191,1
DA:192,0
DA:193,0
DA:194,0
DA:197,0
DA:198,44
DA:200,34
DA:201,34
DA:202,34
DA:204,2466
DA:206,2466
DA:207,629
DA:208,1837
DA:211,1837
DA:212,1837
DA:213,1837
DA:215,1837
DA:216,1732
DA:217,1732
DA:220,34
DA:221,34
DA:223,1
DA:224,1
DA:225,1
DA:226,1
DA:227,1
DA:228,1
DA:229,1
DA:230,1
DA:231,1
DA:232,1
DA:234,5
DA:235,5
DA:238,139
DA:239,139
DA:241,139
DA:242,32
DA:243,107
DA:246,107
DA:247,107
DA:248,107
DA:250,107
DA:251,107
DA:252,107
DA:256,5
DA:258,1
DA:259,4
DA:262,4
DA:263,2
DA:264,2
DA:267,4
DA:271,0
DA:272,1
DA:274,4
DA:275,4
DA:278,4
DA:279,1
DA:280,3
DA:283,3
DA:284,1
DA:285,2
DA:288,2
DA:289,0
DA:290,2
DA:292,2
DA:293,4
DA:295,1
DA:296,1
DA:297,1
DA:298,1
DA:299,1
DA:300,1
DA:301,1
DA:302,1
DA:304,0
DA:305,0
DA:306,0
DA:307,0
DA:309,0
DA:312,0
DA:314,0
DA:315,1
DA:316,1
DA:318,0
DA:319,0
DA:320,0
DA:321,0
DA:322,0
DA:324,0
DA:325,0
DA:326,0
DA:327,0
DA:328,0
DA:329,0
DA:330,0
DA:331,0
DA:332,0
DA:333,0
DA:334,0
DA:335,0
DA:336,0
DA:337,0
DA:340,0
DA:341,0
DA:343,24
DA:344,24
DA:345,24
DA:346,0
DA:347,0
DA:349,24
BRF:0
BRH:0
LF:247
LH:153
end_of_record
SF:/home/owner/.ghq/github.com/unhappychoice/gittype/src/extractor/git_info.rs
FN:87,_RNvMs_NtNtCs4PyLZvEkasu_7gittype9extractor8git_infoNtB4_16GitInfoExtractor14get_remote_url
FN:29,_RNvMs_NtNtCs4PyLZvEkasu_7gittype9extractor8git_infoNtB4_16GitInfoExtractor16extract_git_info
FN:104,_RNvMs_NtNtCs4PyLZvEkasu_7gittype9extractor8git_infoNtB4_16GitInfoExtractor16parse_remote_url
FN:138,_RNvMs_NtNtCs4PyLZvEkasu_7gittype9extractor8git_infoNtB4_16GitInfoExtractor18get_current_branch
FN:155,_RNvMs_NtNtCs4PyLZvEkasu_7gittype9extractor8git_infoNtB4_16GitInfoExtractor23get_current_commit_hash
FN:64,_RNvMs_NtNtCs4PyLZvEkasu_7gittype9extractor8git_infoNtB4_16GitInfoExtractor24find_git_repository_root
FN:172,_RNvMs_NtNtCs4PyLZvEkasu_7gittype9extractor8git_infoNtB4_16GitInfoExtractor26is_working_directory_dirty
FN:25,_RNvMs_NtNtCs4PyLZvEkasu_7gittype9extractor8git_infoNtB4_16GitInfoExtractor3new
FN:19,_RNvXNtNtCs4PyLZvEkasu_7gittype9extractor8git_infoNtB2_16GitInfoExtractorNtNtCs66KPHxksi63_4core7default7Default7default
FN:82,_RNvMs_NtNtCs4PyLZvEkasu_7gittype9extractor8git_infoNtB4_16GitInfoExtractor17is_git_repository
FN:87,_RNvMs_NtNtCscZjyiejqBjN_7gittype9extractor8git_infoNtB4_16GitInfoExtractor14get_remote_url
FN:29,_RNvMs_NtNtCscZjyiejqBjN_7gittype9extractor8git_infoNtB4_16GitInfoExtractor16extract_git_info
FN:104,_RNvMs_NtNtCscZjyiejqBjN_7gittype9extractor8git_infoNtB4_16GitInfoExtractor16parse_remote_url
FN:82,_RNvMs_NtNtCscZjyiejqBjN_7gittype9extractor8git_infoNtB4_16GitInfoExtractor17is_git_repository
FN:138,_RNvMs_NtNtCscZjyiejqBjN_7gittype9extractor8git_infoNtB4_16GitInfoExtractor18get_current_branch
FN:155,_RNvMs_NtNtCscZjyiejqBjN_7gittype9extractor8git_infoNtB4_16GitInfoExtractor23get_current_commit_hash
FN:64,_RNvMs_NtNtCscZjyiejqBjN_7gittype9extractor8git_infoNtB4_16GitInfoExtractor24find_git_repository_root
FN:172,_RNvMs_NtNtCscZjyiejqBjN_7gittype9extractor8git_infoNtB4_16GitInfoExtractor26is_working_directory_dirty
FN:25,_RNvMs_NtNtCscZjyiejqBjN_7gittype9extractor8git_infoNtB4_16GitInfoExtractor3new
FN:19,_RNvXNtNtCscZjyiejqBjN_7gittype9extractor8git_infoNtB2_16GitInfoExtractorNtNtCs66KPHxksi63_4core7default7Default7default
FNDA:0,_RNvMs_NtNtCs4PyLZvEkasu_7gittype9extractor8git_infoNtB4_16GitInfoExtractor14get_remote_url
FNDA:3,_RNvMs_NtNtCs4PyLZvEkasu_7gittype9extractor8git_infoNtB4_16GitInfoExtractor16extract_git_info
FNDA:0,_RNvMs_NtNtCs4PyLZvEkasu_7gittype9extractor8git_infoNtB4_16GitInfoExtractor16parse_remote_url
FNDA:0,_RNvMs_NtNtCs4PyLZvEkasu_7gittype9extractor8git_infoNtB4_16GitInfoExtractor18get_current_branch
FNDA:0,_RNvMs_NtNtCs4PyLZvEkasu_7gittype9extractor8git_infoNtB4_16GitInfoExtractor23get_current_commit_hash
FNDA:3,_RNvMs_NtNtCs4PyLZvEkasu_7gittype9extractor8git_infoNtB4_16GitInfoExtractor24find_git_repository_root
FNDA:0,_RNvMs_NtNtCs4PyLZvEkasu_7gittype9extractor8git_infoNtB4_16GitInfoExtractor26is_working_directory_dirty
FNDA:0,_RNvMs_NtNtCs4PyLZvEkasu_7gittype9extractor8git_infoNtB4_16GitInfoExtractor3new
FNDA:0,_RNvXNtNtCs4PyLZvEkasu_7gittype9extractor8git_infoNtB2_16GitInfoExtractorNtNtCs66KPHxksi63_4core7default7Default7default
FNDA:0,_RNvMs_NtNtCs4PyLZvEkasu_7gittype9extractor8git_infoNtB4_16GitInfoExtractor17is_git_repository
FNDA:0,_RNvMs_NtNtCscZjyiejqBjN_7gittype9extractor8git_infoNtB4_16GitInfoExtractor14get_remote_url
FNDA:0,_RNvMs_NtNtCscZjyiejqBjN_7gittype9extractor8git_infoNtB4_16GitInfoExtractor16extract_git_info
FNDA:0,_RNvMs_NtNtCscZjyiejqBjN_7gittype9extractor8git_infoNtB4_16GitInfoExtractor16parse_remote_url
FNDA:0,_RNvMs_NtNtCscZjyiejqBjN_7gittype9extractor8git_infoNtB4_16GitInfoExtractor17is_git_repository
FNDA:0,_RNvMs_NtNtCscZjyiejqBjN_7gittype9extractor8git_infoNtB4_16GitInfoExtractor18get_current_branch
FNDA:0,_RNvMs_NtNtCscZjyiejqBjN_7gittype9extractor8git_infoNtB4_16GitInfoExtractor23get_current_commit_hash
FNDA:0,_RNvMs_NtNtCscZjyiejqBjN_7gittype9extractor8git_infoNtB4_16GitInfoExtractor24find_git_repository_root
FNDA:0,_RNvMs_NtNtCscZjyiejqBjN_7gittype9extractor8git_infoNtB4_16GitInfoExtractor26is_working_directory_dirty
FNDA:0,_RNvMs_NtNtCscZjyiejqBjN_7gittype9extractor8git_infoNtB4_16GitInfoExtractor3new
FNDA:0,_RNvXNtNtCscZjyiejqBjN_7gittype9extractor8git_infoNtB2_16GitInfoExtractorNtNtCs66KPHxksi63_4core7default7Default7default
FNF:10
FNH:2
DA:19,0
DA:20,0
DA:21,0
DA:25,0
DA:26,0
DA:27,0
DA:29,3
DA:31,3
DA:32,3
DA:35,0
DA:40,3
DA:41,0
DA:42,3
DA:45,0
DA:46,0
DA:47,0
DA:48,0
DA:49,0
DA:51,0
DA:52,0
DA:53,0
DA:54,0
DA:55,0
DA:56,0
DA:57,0
DA:58,0
DA:60,0
DA:62,3
DA:64,3
DA:65,3
DA:68,9
DA:69,9
DA:70,0
DA:71,9
DA:74,9
DA:75,6
DA:76,3
DA:79,3
DA:82,0
DA:83,0
DA:84,0
DA:85,0
DA:87,0
DA:88,0
DA:89,0
DA:90,0
DA:91,0
DA:92,0
DA:94,0
DA:95,0
DA:96,0
DA:97,0
DA:98,0
DA:100,0
DA:101,0
DA:102,0
DA:104,0
DA:106,0
DA:107,0
DA:108,0
DA:109,0
DA:110,0
DA:111,0
DA:112,0
DA:113,0
DA:116,0
DA:117,0
DA:118,0
DA:119,0
DA:120,0
DA:121,0
DA:122,0
DA:123,0
DA:126,0
DA:127,0
DA:128,0
DA:129,0
DA:130,0
DA:131,0
DA:132,0
DA:133,0
DA:135,0
DA:136,0
DA:138,0
DA:139,0
DA:140,0
DA:141,0
DA:142,0
DA:143,0
DA:145,0
DA:146,0
DA:147,0
DA:148,0
DA:149,0
DA:151,0
DA:152,0
DA:153,0
DA:155,0
DA:156,0
DA:157,0
DA:158,0
DA:159,0
DA:160,0
DA:162,0
DA:163,0
DA:164,0
DA:165,0
DA:166,0
DA:168,0
DA:169,0
DA:170,0
DA:172,0
DA:173,0
DA:174,0
DA:175,0
DA:176,0
DA:177,0
DA:179,0
DA:180,0
DA:181,0
DA:182,0
DA:183,0
DA:185,0
DA:186,0
DA:187,0
BRF:0
BRH:0
LF:125
LH:15
end_of_record
SF:/home/owner/.ghq/github.com/unhappychoice/gittype/src/extractor/language.rs
FN:9,_RNvMNtNtCs4PyLZvEkasu_7gittype9extractor8languageNtB2_8Language14from_extension
FN:18,_RNvMNtNtCs4PyLZvEkasu_7gittype9extractor8languageNtB2_8Language9extension
FN:9,_RNvMNtNtCscZjyiejqBjN_7gittype9extractor8languageNtB2_8Language14from_extension
FN:18,_RNvMNtNtCscZjyiejqBjN_7gittype9extractor8languageNtB2_8Language9extension
FNDA:46,_RNvMNtNtCs4PyLZvEkasu_7gittype9extractor8languageNtB2_8Language14from_extension
FNDA:0,_RNvMNtNtCs4PyLZvEkasu_7gittype9extractor8languageNtB2_8Language9extension
FNDA:0,_RNvMNtNtCscZjyiejqBjN_7gittype9extractor8languageNtB2_8Language14from_extension
FNDA:0,_RNvMNtNtCscZjyiejqBjN_7gittype9extractor8languageNtB2_8Language9extension
FNF:2
FNH:1
DA:9,46
DA:10,46
DA:11,46
DA:12,28
DA:13,16
DA:14,15
DA:16,46
DA:18,0
DA:19,0
DA:20,0
DA:21,0
DA:22,0
DA:24,0
BRF:0
BRH:0
LF:13
LH:7
end_of_record
SF:/home/owner/.ghq/github.com/unhappychoice/gittype/src/extractor/parser.rs
FN:380,_RNvMs_NtNtCs4PyLZvEkasu_7gittype9extractor6parserNtB4_13CodeExtractor12extract_name
FN:289,_RNvMs_NtNtCs4PyLZvEkasu_7gittype9extractor6parserNtB4_13CodeExtractor13node_to_chunk
FN:161,_RNvMs_NtNtCs4PyLZvEkasu_7gittype9extractor6parserNtB4_13CodeExtractor19should_process_file
FN:420,_RNvMs_NtNtCs4PyLZvEkasu_7gittype9extractor6parserNtB4_13CodeExtractor21normalize_indentation
FN:530,_RNvMs_NtNtCs4PyLZvEkasu_7gittype9extractor6parserNtB4_13CodeExtractor22extract_comment_ranges
FN:216,_RNvMs_NtNtCs4PyLZvEkasu_7gittype9extractor6parserNtB4_13CodeExtractor24extract_chunks_from_tree
FN:87,_RINvMs_NtNtCs4PyLZvEkasu_7gittype9extractor6parserNtB5_13CodeExtractor28extract_chunks_with_progressNtNtB7_8progress20NoOpProgressReporterEB9_
FN:107,_RNCINvMs_NtNtCs4PyLZvEkasu_7gittype9extractor6parserNtB7_13CodeExtractor28extract_chunks_with_progressNtNtB9_8progress20NoOpProgressReporterE0Bb_
FN:136,_RNCINvMs_NtNtCs4PyLZvEkasu_7gittype9extractor6parserNtB7_13CodeExtractor28extract_chunks_with_progressNtNtB9_8progress20NoOpProgressReporterEs0_0Bb_
FN:114,_RNCINvMs_NtNtCs4PyLZvEkasu_7gittype9extractor6parserNtB7_13CodeExtractor28extract_chunks_with_progressNtNtB9_8progress20NoOpProgressReporterEs_0Bb_
FN:344,_RNCNvMs_NtNtCs4PyLZvEkasu_7gittype9extractor6parserNtB6_13CodeExtractor20node_to_chunk_static0Ba_
FN:349,_RNCNvMs_NtNtCs4PyLZvEkasu_7gittype9extractor6parserNtB6_13CodeExtractor20node_to_chunk_statics_0Ba_
FN:208,_RNCNvMs_NtNtCs4PyLZvEkasu_7gittype9extractor6parserNtB6_13CodeExtractor24extract_from_file_static0Ba_
FN:48,_RNCNvMs_NtNtCs4PyLZvEkasu_7gittype9extractor6parserNtB6_13CodeExtractor26create_parser_for_language0Ba_
FN:68,_RNCNvMs_NtNtCs4PyLZvEkasu_7gittype9extractor6parserNtB6_13CodeExtractor26create_parser_for_languages0_0Ba_
FN:58,_RNCNvMs_NtNtCs4PyLZvEkasu_7gittype9extractor6parserNtB6_13CodeExtractor26create_parser_for_languages_0Ba_
FN:171,_RNCNvMs_NtNtCs4PyLZvEkasu_7gittype9extractor6parserNtB6_13CodeExtractor26should_process_file_static0Ba_
FN:181,_RNCNvMs_NtNtCs4PyLZvEkasu_7gittype9extractor6parserNtB6_13CodeExtractor26should_process_file_statics_0Ba_
FN:513,_RNCNvMs_NtNtCs4PyLZvEkasu_7gittype9extractor6parserNtB6_13CodeExtractor28normalize_indentation_statics0_0Ba_
FN:512,_RNCNvMs_NtNtCs4PyLZvEkasu_7gittype9extractor6parserNtB6_13CodeExtractor28normalize_indentation_statics_0Ba_
FN:258,_RNCNvMs_NtNtCs4PyLZvEkasu_7gittype9extractor6parserNtB6_13CodeExtractor31extract_chunks_from_tree_static0Ba_
FN:79,_RNvMs_NtNtCs4PyLZvEkasu_7gittype9extractor6parserNtB4_13CodeExtractor14extract_chunks
FN:191,_RNvMs_NtNtCs4PyLZvEkasu_7gittype9extractor6parserNtB4_13CodeExtractor17extract_from_file
FN:384,_RNvMs_NtNtCs4PyLZvEkasu_7gittype9extractor6parserNtB4_13CodeExtractor19extract_name_static
FN:310,_RNvMs_NtNtCs4PyLZvEkasu_7gittype9extractor6parserNtB4_13CodeExtractor20node_to_chunk_static
FN:200,_RNvMs_NtNtCs4PyLZvEkasu_7gittype9extractor6parserNtB4_13CodeExtractor24extract_from_file_static
FN:42,_RNvMs_NtNtCs4PyLZvEkasu_7gittype9extractor6parserNtB4_13CodeExtractor26create_parser_for_language
FN:165,_RNvMs_NtNtCs4PyLZvEkasu_7gittype9extractor6parserNtB4_13CodeExtractor26should_process_file_static
FN:429,_RNvMs_NtNtCs4PyLZvEkasu_7gittype9extractor6parserNtB4_13CodeExtractor28normalize_indentation_static
FN:539,_RNvMs_NtNtCs4PyLZvEkasu_7gittype9extractor6parserNtB4_13CodeExtractor29extract_comment_ranges_static
FN:227,_RNvMs_NtNtCs4PyLZvEkasu_7gittype9extractor6parserNtB4_13CodeExtractor31extract_chunks_from_tree_static
FN:38,_RNvMs_NtNtCs4PyLZvEkasu_7gittype9extractor6parserNtB4_13CodeExtractor3new
FN:17,_RNvXNtNtCs4PyLZvEkasu_7gittype9extractor6parserNtB2_17ExtractionOptionsNtNtCs66KPHxksi63_4core7default7Default7default
FN:87,_RINvMs_NtNtCscZjyiejqBjN_7gittype9extractor6parserNtB5_13CodeExtractor28extract_chunks_with_progresspEB9_
FN:107,_RNCINvMs_NtNtCscZjyiejqBjN_7gittype9extractor6parserNtB7_13CodeExtractor28extract_chunks_with_progresspE0Bb_
FN:136,_RNCINvMs_NtNtCscZjyiejqBjN_7gittype9extractor6parserNtB7_13CodeExtractor28extract_chunks_with_progresspEs0_0Bb_
FN:114,_RNCINvMs_NtNtCscZjyiejqBjN_7gittype9extractor6parserNtB7_13CodeExtractor28extract_chunks_with_progresspEs_0Bb_
FN:344,_RNCNvMs_NtNtCscZjyiejqBjN_7gittype9extractor6parserNtB6_13CodeExtractor20node_to_chunk_static0Ba_
FN:349,_RNCNvMs_NtNtCscZjyiejqBjN_7gittype9extractor6parserNtB6_13CodeExtractor20node_to_chunk_statics_0Ba_
FN:208,_RNCNvMs_NtNtCscZjyiejqBjN_7gittype9extractor6parserNtB6_13CodeExtractor24extract_from_file_static0Ba_
FN:48,_RNCNvMs_NtNtCscZjyiejqBjN_7gittype9extractor6parserNtB6_13CodeExtractor26create_parser_for_language0Ba_
FN:68,_RNCNvMs_NtNtCscZjyiejqBjN_7gittype9extractor6parserNtB6_13CodeExtractor26create_parser_for_languages0_0Ba_
FN:58,_RNCNvMs_NtNtCscZjyiejqBjN_7gittype9extractor6parserNtB6_13CodeExtractor26create_parser_for_languages_0Ba_
FN:171,_RNCNvMs_NtNtCscZjyiejqBjN_7gittype9extractor6parserNtB6_13CodeExtractor26should_process_file_static0Ba_
FN:181,_RNCNvMs_NtNtCscZjyiejqBjN_7gittype9extractor6parserNtB6_13CodeExtractor26should_process_file_statics_0Ba_
FN:513,_RNCNvMs_NtNtCscZjyiejqBjN_7gittype9extractor6parserNtB6_13CodeExtractor28normalize_indentation_statics0_0Ba_
FN:512,_RNCNvMs_NtNtCscZjyiejqBjN_7gittype9extractor6parserNtB6_13CodeExtractor28normalize_indentation_statics_0Ba_
FN:258,_RNCNvMs_NtNtCscZjyiejqBjN_7gittype9extractor6parserNtB6_13CodeExtractor31extract_chunks_from_tree_static0Ba_
FN:380,_RNvMs_NtNtCscZjyiejqBjN_7gittype9extractor6parserNtB4_13CodeExtractor12extract_name
FN:289,_RNvMs_NtNtCscZjyiejqBjN_7gittype9extractor6parserNtB4_13CodeExtractor13node_to_chunk
FN:79,_RNvMs_NtNtCscZjyiejqBjN_7gittype9extractor6parserNtB4_13CodeExtractor14extract_chunks
FN:191,_RNvMs_NtNtCscZjyiejqBjN_7gittype9extractor6parserNtB4_13CodeExtractor17extract_from_file
FN:384,_RNvMs_NtNtCscZjyiejqBjN_7gittype9extractor6parserNtB4_13CodeExtractor19extract_name_static
FN:161,_RNvMs_NtNtCscZjyiejqBjN_7gittype9extractor6parserNtB4_13CodeExtractor19should_process_file
FN:310,_RNvMs_NtNtCscZjyiejqBjN_7gittype9extractor6parserNtB4_13CodeExtractor20node_to_chunk_static
FN:420,_RNvMs_NtNtCscZjyiejqBjN_7gittype9extractor6parserNtB4_13CodeExtractor21normalize_indentation
FN:530,_RNvMs_NtNtCscZjyiejqBjN_7gittype9extractor6parserNtB4_13CodeExtractor22extract_comment_ranges
FN:216,_RNvMs_NtNtCscZjyiejqBjN_7gittype9extractor6parserNtB4_13CodeExtractor24extract_chunks_from_tree
FN:200,_RNvMs_NtNtCscZjyiejqBjN_7gittype9extractor6parserNtB4_13CodeExtractor24extract_from_file_static
FN:42,_RNvMs_NtNtCscZjyiejqBjN_7gittype9extractor6parserNtB4_13CodeExtractor26create_parser_for_language
FN:165,_RNvMs_NtNtCscZjyiejqBjN_7gittype9extractor6parserNtB4_13CodeExtractor26should_process_file_static
FN:429,_RNvMs_NtNtCscZjyiejqBjN_7gittype9extractor6parserNtB4_13CodeExtractor28normalize_indentation_static
FN:539,_RNvMs_NtNtCscZjyiejqBjN_7gittype9extractor6parserNtB4_13CodeExtractor29extract_comment_ranges_static
FN:227,_RNvMs_NtNtCscZjyiejqBjN_7gittype9extractor6parserNtB4_13CodeExtractor31extract_chunks_from_tree_static
FN:38,_RNvMs_NtNtCscZjyiejqBjN_7gittype9extractor6parserNtB4_13CodeExtractor3new
FN:17,_RNvXNtNtCscZjyiejqBjN_7gittype9extractor6parserNtB2_17ExtractionOptionsNtNtCs66KPHxksi63_4core7default7Default7default
FN:87,_RINvMs_NtNtCs4PyLZvEkasu_7gittype9extractor6parserNtB5_13CodeExtractor28extract_chunks_with_progressNtNtNtNtB9_4game7screens14loading_screen13LoadingScreenECsbo6X0jOJBx_7gittype
FN:107,_RNCINvMs_NtNtCs4PyLZvEkasu_7gittype9extractor6parserNtB7_13CodeExtractor28extract_chunks_with_progressNtNtNtNtBb_4game7screens14loading_screen13LoadingScreenE0Csbo6X0jOJBx_7gittype
FN:136,_RNCINvMs_NtNtCs4PyLZvEkasu_7gittype9extractor6parserNtB7_13CodeExtractor28extract_chunks_with_progressNtNtNtNtBb_4game7screens14loading_screen13LoadingScreenEs0_0Csbo6X0jOJBx_7gittype
FN:114,_RNCINvMs_NtNtCs4PyLZvEkasu_7gittype9extractor6parserNtB7_13CodeExtractor28extract_chunks_with_progressNtNtNtNtBb_4game7screens14loading_screen13LoadingScreenEs_0Csbo6X0jOJBx_7gittype
FNDA:0,_RNvMs_NtNtCs4PyLZvEkasu_7gittype9extractor6parserNtB4_13CodeExtractor12extract_name
FNDA:0,_RNvMs_NtNtCs4PyLZvEkasu_7gittype9extractor6parserNtB4_13CodeExtractor13node_to_chunk
FNDA:0,_RNvMs_NtNtCs4PyLZvEkasu_7gittype9extractor6parserNtB4_13CodeExtractor19should_process_file
FNDA:0,_RNvMs_NtNtCs4PyLZvEkasu_7gittype9extractor6parserNtB4_13CodeExtractor21normalize_indentation
FNDA:0,_RNvMs_NtNtCs4PyLZvEkasu_7gittype9extractor6parserNtB4_13CodeExtractor22extract_comment_ranges
FNDA:0,_RNvMs_NtNtCs4PyLZvEkasu_7gittype9extractor6parserNtB4_13CodeExtractor24extract_chunks_from_tree
FNDA:8,_RINvMs_NtNtCs4PyLZvEkasu_7gittype9extractor6parserNtB5_13CodeExtractor28extract_chunks_with_progressNtNtB7_8progress20NoOpProgressReporterEB9_
FNDA:0,_RNCINvMs_NtNtCs4PyLZvEkasu_7gittype9extractor6parserNtB7_13CodeExtractor28extract_chunks_with_progressNtNtB9_8progress20NoOpProgressReporterE0Bb_
FNDA:27,_RNCINvMs_NtNtCs4PyLZvEkasu_7gittype9extractor6parserNtB7_13CodeExtractor28extract_chunks_with_progressNtNtB9_8progress20NoOpProgressReporterEs0_0Bb_
FNDA:41,_RNCINvMs_NtNtCs4PyLZvEkasu_7gittype9extractor6parserNtB7_13CodeExtractor28extract_chunks_with_progressNtNtB9_8progress20NoOpProgressReporterEs_0Bb_
FNDA:0,_RNCNvMs_NtNtCs4PyLZvEkasu_7gittype9extractor6parserNtB6_13CodeExtractor20node_to_chunk_static0Ba_
FNDA:3,_RNCNvMs_NtNtCs4PyLZvEkasu_7gittype9extractor6parserNtB6_13CodeExtractor20node_to_chunk_statics_0Ba_
FNDA:0,_RNCNvMs_NtNtCs4PyLZvEkasu_7gittype9extractor6parserNtB6_13CodeExtractor24extract_from_file_static0Ba_
FNDA:0,_RNCNvMs_NtNtCs4PyLZvEkasu_7gittype9extractor6parserNtB6_13CodeExtractor26create_parser_for_language0Ba_
FNDA:0,_RNCNvMs_NtNtCs4PyLZvEkasu_7gittype9extractor6parserNtB6_13CodeExtractor26create_parser_for_languages0_0Ba_
FNDA:0,_RNCNvMs_NtNtCs4PyLZvEkasu_7gittype9extractor6parserNtB6_13CodeExtractor26create_parser_for_languages_0Ba_
FNDA:81,_RNCNvMs_NtNtCs4PyLZvEkasu_7gittype9extractor6parserNtB6_13CodeExtractor26should_process_file_static0Ba_
FNDA:37,_RNCNvMs_NtNtCs4PyLZvEkasu_7gittype9extractor6parserNtB6_13CodeExtractor26should_process_file_statics_0Ba_
FNDA:2,_RNCNvMs_NtNtCs4PyLZvEkasu_7gittype9extractor6parserNtB6_13CodeExtractor28normalize_indentation_statics0_0Ba_
FNDA:2,_RNCNvMs_NtNtCs4PyLZvEkasu_7gittype9extractor6parserNtB6_13CodeExtractor28normalize_indentation_statics_0Ba_
FNDA:0,_RNCNvMs_NtNtCs4PyLZvEkasu_7gittype9extractor6parserNtB6_13CodeExtractor31extract_chunks_from_tree_static0Ba_
FNDA:5,_RNvMs_NtNtCs4PyLZvEkasu_7gittype9extractor6parserNtB4_13CodeExtractor14extract_chunks
FNDA:0,_RNvMs_NtNtCs4PyLZvEkasu_7gittype9extractor6parserNtB4_13CodeExtractor17extract_from_file
FNDA:87,_RNvMs_NtNtCs4PyLZvEkasu_7gittype9extractor6parserNtB4_13CodeExtractor19extract_name_static
FNDA:176,_RNvMs_NtNtCs4PyLZvEkasu_7gittype9extractor6parserNtB4_13CodeExtractor20node_to_chunk_static
FNDA:27,_RNvMs_NtNtCs4PyLZvEkasu_7gittype9extractor6parserNtB4_13CodeExtractor24extract_from_file_static
FNDA:27,_RNvMs_NtNtCs4PyLZvEkasu_7gittype9extractor6parserNtB4_13CodeExtractor26create_parser_for_language
FNDA:27,_RNvMs_NtNtCs4PyLZvEkasu_7gittype9extractor6parserNtB4_13CodeExtractor26should_process_file_static
FNDA:87,_RNvMs_NtNtCs4PyLZvEkasu_7gittype9extractor6parserNtB4_13CodeExtractor28normalize_indentation_static
FNDA:27,_RNvMs_NtNtCs4PyLZvEkasu_7gittype9extractor6parserNtB4_13CodeExtractor29extract_comment_ranges_static
FNDA:27,_RNvMs_NtNtCs4PyLZvEkasu_7gittype9extractor6parserNtB4_13CodeExtractor31extract_chunks_from_tree_static
FNDA:10,_RNvMs_NtNtCs4PyLZvEkasu_7gittype9extractor6parserNtB4_13CodeExtractor3new
FNDA:9,_RNvXNtNtCs4PyLZvEkasu_7gittype9extractor6parserNtB2_17ExtractionOptionsNtNtCs66KPHxksi63_4core7default7Default7default
FNDA:0,_RINvMs_NtNtCscZjyiejqBjN_7gittype9extractor6parserNtB5_13CodeExtractor28extract_chunks_with_progresspEB9_
FNDA:0,_RNCINvMs_NtNtCscZjyiejqBjN_7gittype9extractor6parserNtB7_13CodeExtractor28extract_chunks_with_progresspE0Bb_
FNDA:0,_RNCINvMs_NtNtCscZjyiejqBjN_7gittype9extractor6parserNtB7_13CodeExtractor28extract_chunks_with_progresspEs0_0Bb_
FNDA:0,_RNCINvMs_NtNtCscZjyiejqBjN_7gittype9extractor6parserNtB7_13CodeExtractor28extract_chunks_with_progresspEs_0Bb_
FNDA:0,_RNCNvMs_NtNtCscZjyiejqBjN_7gittype9extractor6parserNtB6_13CodeExtractor20node_to_chunk_static0Ba_
FNDA:0,_RNCNvMs_NtNtCscZjyiejqBjN_7gittype9extractor6parserNtB6_13CodeExtractor20node_to_chunk_statics_0Ba_
FNDA:0,_RNCNvMs_NtNtCscZjyiejqBjN_7gittype9extractor6parserNtB6_13CodeExtractor24extract_from_file_static0Ba_
FNDA:0,_RNCNvMs_NtNtCscZjyiejqBjN_7gittype9extractor6parserNtB6_13CodeExtractor26create_parser_for_language0Ba_
FNDA:0,_RNCNvMs_NtNtCscZjyiejqBjN_7gittype9extractor6parserNtB6_13CodeExtractor26create_parser_for_languages0_0Ba_
FNDA:0,_RNCNvMs_NtNtCscZjyiejqBjN_7gittype9extractor6parserNtB6_13CodeExtractor26create_parser_for_languages_0Ba_
FNDA:0,_RNCNvMs_NtNtCscZjyiejqBjN_7gittype9extractor6parserNtB6_13CodeExtractor26should_process_file_static0Ba_
FNDA:0,_RNCNvMs_NtNtCscZjyiejqBjN_7gittype9extractor6parserNtB6_13CodeExtractor26should_process_file_statics_0Ba_
FNDA:0,_RNCNvMs_NtNtCscZjyiejqBjN_7gittype9extractor6parserNtB6_13CodeExtractor28normalize_indentation_statics0_0Ba_
FNDA:0,_RNCNvMs_NtNtCscZjyiejqBjN_7gittype9extractor6parserNtB6_13CodeExtractor28normalize_indentation_statics_0Ba_
FNDA:0,_RNCNvMs_NtNtCscZjyiejqBjN_7gittype9extractor6parserNtB6_13CodeExtractor31extract_chunks_from_tree_static0Ba_
FNDA:0,_RNvMs_NtNtCscZjyiejqBjN_7gittype9extractor6parserNtB4_13CodeExtractor12extract_name
FNDA:0,_RNvMs_NtNtCscZjyiejqBjN_7gittype9extractor6parserNtB4_13CodeExtractor13node_to_chunk
FNDA:0,_RNvMs_NtNtCscZjyiejqBjN_7gittype9extractor6parserNtB4_13CodeExtractor14extract_chunks
FNDA:0,_RNvMs_NtNtCscZjyiejqBjN_7gittype9extractor6parserNtB4_13CodeExtractor17extract_from_file
FNDA:0,_RNvMs_NtNtCscZjyiejqBjN_7gittype9extractor6parserNtB4_13CodeExtractor19extract_name_static
FNDA:0,_RNvMs_NtNtCscZjyiejqBjN_7gittype9extractor6parserNtB4_13CodeExtractor19should_process_file
FNDA:0,_RNvMs_NtNtCscZjyiejqBjN_7gittype9extractor6parserNtB4_13CodeExtractor20node_to_chunk_static
FNDA:0,_RNvMs_NtNtCscZjyiejqBjN_7gittype9extractor6parserNtB4_13CodeExtractor21normalize_indentation
FNDA:0,_RNvMs_NtNtCscZjyiejqBjN_7gittype9extractor6parserNtB4_13CodeExtractor22extract_comment_ranges
FNDA:0,_RNvMs_NtNtCscZjyiejqBjN_7gittype9extractor6parserNtB4_13CodeExtractor24extract_chunks_from_tree
FNDA:0,_RNvMs_NtNtCscZjyiejqBjN_7gittype9extractor6parserNtB4_13CodeExtractor24extract_from_file_static
FNDA:0,_RNvMs_NtNtCscZjyiejqBjN_7gittype9extractor6parserNtB4_13CodeExtractor26create_parser_for_language
FNDA:0,_RNvMs_NtNtCscZjyiejqBjN_7gittype9extractor6parserNtB4_13CodeExtractor26should_process_file_static
FNDA:0,_RNvMs_NtNtCscZjyiejqBjN_7gittype9extractor6parserNtB4_13CodeExtractor28normalize_indentation_static
FNDA:0,_RNvMs_NtNtCscZjyiejqBjN_7gittype9extractor6parserNtB4_13CodeExtractor29extract_comment_ranges_static
FNDA:0,_RNvMs_NtNtCscZjyiejqBjN_7gittype9extractor6parserNtB4_13CodeExtractor31extract_chunks_from_tree_static
FNDA:0,_RNvMs_NtNtCscZjyiejqBjN_7gittype9extractor6parserNtB4_13CodeExtractor3new
FNDA:0,_RNvXNtNtCscZjyiejqBjN_7gittype9extractor6parserNtB2_17ExtractionOptionsNtNtCs66KPHxksi63_4core7default7Default7default
FNDA:0,_RINvMs_NtNtCs4PyLZvEkasu_7gittype9extractor6parserNtB5_13CodeExtractor28extract_chunks_with_progressNtNtNtNtB9_4game7screens14loading_screen13LoadingScreenECsbo6X0jOJBx_7gittype
FNDA:0,_RNCINvMs_NtNtCs4PyLZvEkasu_7gittype9extractor6parserNtB7_13CodeExtractor28extract_chunks_with_progressNtNtNtNtBb_4game7screens14loading_screen13LoadingScreenE0Csbo6X0jOJBx_7gittype
FNDA:0,_RNCINvMs_NtNtCs4PyLZvEkasu_7gittype9extractor6parserNtB7_13CodeExtractor28extract_chunks_with_progressNtNtNtNtBb_4game7screens14loading_screen13LoadingScreenEs0_0Csbo6X0jOJBx_7gittype
FNDA:0,_RNCINvMs_NtNtCs4PyLZvEkasu_7gittype9extractor6parserNtB7_13CodeExtractor28extract_chunks_with_progressNtNtNtNtBb_4game7screens14loading_screen13LoadingScreenEs_0Csbo6X0jOJBx_7gittype
FNF:33
FNH:19
DA:17,9
DA:18,9
DA:19,9
DA:20,9
DA:21,9
DA:22,9
DA:23,9
DA:24,9
DA:25,9
DA:26,9
DA:27,9
DA:28,9
DA:29,9
DA:30,9
DA:31,9
DA:32,9
DA:38,10
DA:39,10
DA:40,10
DA:42,27
DA:43,27
DA:44,27
DA:46,17
DA:47,17
DA:48,17
DA:49,0
DA:50,0
DA:51,0
DA:52,0
DA:53,0
DA:56,10
DA:57,10
DA:58,10
DA:59,0
DA:60,0
DA:61,0
DA:62,0
DA:63,0
DA:66,0
DA:67,0
DA:68,0
DA:69,0
DA:70,0
DA:71,0
DA:72,0
DA:73,0
DA:76,27
DA:77,27
DA:79,5
DA:80,5
DA:81,5
DA:82,5
DA:83,5
DA:84,5
DA:85,5
DA:87,8
DA:88,8
DA:89,8
DA:90,8
DA:91,8
DA:92,8
DA:93,8
DA:96,8
DA:97,8
DA:98,8
DA:99,8
DA:100,8
DA:101,8
DA:104,8
DA:105,71
DA:106,63
DA:107,63
DA:108,63
DA:110,63
DA:111,17
DA:112,46
DA:114,46
DA:115,41
DA:116,27
DA:117,27
DA:118,27
DA:119,14
DA:120,5
DA:123,8
DA:124,8
DA:128,8
DA:129,8
DA:130,8
DA:132,27
DA:134,27
DA:135,27
DA:136,27
DA:137,27
DA:140,27
DA:141,27
DA:144,27
DA:147,27
DA:148,54
DA:149,27
DA:150,27
DA:153,8
DA:154,8
DA:155,8
DA:157,8
DA:158,8
DA:161,0
DA:162,0
DA:163,0
DA:165,27
DA:166,27
DA:169,108
DA:170,81
DA:171,81
DA:172,81
DA:174,0
DA:175,81
DA:179,37
DA:180,37
DA:181,37
DA:182,37
DA:184,27
DA:185,10
DA:188,0
DA:189,27
DA:191,0
DA:192,0
DA:193,0
DA:194,0
DA:195,0
DA:196,0
DA:197,0
DA:198,0
DA:200,27
DA:201,27
DA:202,27
DA:203,27
DA:204,27
DA:205,27
DA:206,27
DA:208,27
DA:209,0
DA:210,0
DA:212,27
DA:213,27
DA:216,0
DA:217,0
DA:218,0
DA:219,0
DA:220,0
DA:221,0
DA:222,0
DA:223,0
DA:224,0
DA:225,0
DA:227,27
DA:228,27
DA:229,27
DA:230,27
DA:231,27
DA:232,27
DA:233,27
DA:234,27
DA:237,27
DA:239,27
DA:240,17
DA:241,17
DA:242,17
DA:243,17
DA:244,17
DA:245,10
DA:246,10
DA:247,10
DA:248,10
DA:249,10
DA:250,10
DA:251,10
DA:252,0
DA:253,0
DA:254,0
DA:255,0
DA:258,27
DA:259,0
DA:260,0
DA:262,27
DA:263,27
DA:265,115
DA:266,264
DA:267,176
DA:268,176
DA:270,176
DA:271,176
DA:272,176
DA:273,176
DA:274,176
DA:275,176
DA:276,176
DA:277,176
DA:278,176
DA:279,87
DA:280,89
DA:284,27
DA:285,27
DA:289,0
DA:290,0
DA:291,0
DA:292,0
DA:293,0
DA:294,0
DA:295,0
DA:296,0
DA:297,0
DA:298,0
DA:299,0
DA:300,0
DA:301,0
DA:302,0
DA:303,0
DA:304,0
DA:305,0
DA:306,0
DA:308,0
DA:310,176
DA:311,176
DA:312,176
DA:313,176
DA:314,176
DA:315,176
DA:316,176
DA:317,176
DA:318,176
DA:319,176
DA:320,176
DA:321,176
DA:323,176
DA:324,176
DA:325,176
DA:327,176
DA:328,4
DA:329,1
DA:330,3
DA:331,172
DA:333,175
DA:334,175
DA:335,135
DA:336,125
DA:337,102
DA:338,88
DA:339,88
DA:340,88
DA:343,87
DA:344,87
DA:347,87
DA:348,87
DA:349,87
DA:350,3
DA:352,2
DA:354,1
DA:356,3
DA:357,87
DA:360,87
DA:361,87
DA:362,87
DA:363,87
DA:364,87
DA:366,87
DA:367,87
DA:368,87
DA:369,87
DA:370,87
DA:371,87
DA:372,87
DA:373,87
DA:374,87
DA:375,87
DA:376,87
DA:377,176
DA:380,0
DA:381,0
DA:382,0
DA:384,87
DA:386,87
DA:387,0
DA:388,0
DA:389,0
DA:390,0
DA:391,0
DA:392,0
DA:393,0
DA:394,0
DA:395,0
DA:396,87
DA:399,87
DA:400,87
DA:402,180
DA:403,180
DA:404,140
DA:405,103
DA:407,87
DA:408,87
DA:409,87
DA:410,93
DA:411,93
DA:412,0
DA:413,93
DA:415,0
DA:416,0
DA:417,87
DA:420,0
DA:421,0
DA:422,0
DA:423,0
DA:424,0
DA:425,0
DA:426,0
DA:427,0
DA:429,87
DA:430,87
DA:431,87
DA:432,87
DA:433,87
DA:434,87
DA:435,87
DA:436,0
DA:437,87
DA:440,87
DA:441,87
DA:442,87
DA:443,87
DA:445,328
DA:446,328
DA:448,328
DA:450,2096
DA:451,2009
DA:452,2009
DA:453,2009
DA:454,2009
DA:455,87
DA:456,241
DA:458,11
DA:459,0
DA:460,0
DA:461,0
DA:462,11
DA:465,230
DA:466,230
DA:468,3462
DA:469,3462
DA:470,284
DA:471,3178
DA:472,3178
DA:473,3178
DA:474,3178
DA:475,3462
DA:477,230
DA:480,0
DA:481,0
DA:482,0
DA:483,0
DA:484,0
DA:485,0
DA:490,328
DA:491,241
DA:492,241
DA:493,241
DA:494,241
DA:497,87
DA:500,87
DA:502,89
DA:503,2
DA:505,2
DA:508,2
DA:510,2
DA:511,2
DA:512,2
DA:513,2
DA:515,0
DA:518,2
DA:519,2
DA:520,2
DA:521,2
DA:522,0
DA:523,0
DA:526,87
DA:527,87
DA:530,0
DA:531,0
DA:532,0
DA:533,0
DA:534,0
DA:535,0
DA:536,0
DA:537,0
DA:539,27
DA:540,27
DA:541,27
DA:542,27
DA:543,27
DA:544,27
DA:546,27
DA:547,17
DA:548,10
DA:549,0
DA:552,27
DA:553,27
DA:554,0
DA:557,27
DA:558,27
DA:560,30
DA:561,6
DA:562,3
DA:563,3
DA:564,3
DA:567,3
DA:568,3
DA:569,3
DA:570,0
DA:571,0
DA:574,3
DA:575,0
DA:576,3
DA:578,3
DA:582,27
DA:583,27
DA:584,27
BRF:0
BRH:0
LF:443
LH:314
end_of_record
SF:/home/owner/.ghq/github.com/unhappychoice/gittype/src/extractor/progress.rs
FN:81,_RNCNvXs1_NtNtCs4PyLZvEkasu_7gittype9extractor8progressNtB7_23ConsoleProgressReporterNtB7_16ProgressReporter16set_current_file0Bb_
FN:45,_RNvMs0_NtNtCs4PyLZvEkasu_7gittype9extractor8progressNtB5_23ConsoleProgressReporter16get_spinner_char
FN:50,_RNvMs0_NtNtCs4PyLZvEkasu_7gittype9extractor8progressNtB5_23ConsoleProgressReporter19create_progress_bar
FN:36,_RNvMs0_NtNtCs4PyLZvEkasu_7gittype9extractor8progressNtB5_23ConsoleProgressReporter3new
FN:16,_RNvXNtNtCs4PyLZvEkasu_7gittype9extractor8progressNtB2_20NoOpProgressReporterNtB2_16ProgressReporter12set_progress
FN:19,_RNvXNtNtCs4PyLZvEkasu_7gittype9extractor8progressNtB2_20NoOpProgressReporterNtB2_16ProgressReporter14update_spinner
FN:18,_RNvXNtNtCs4PyLZvEkasu_7gittype9extractor8progressNtB2_20NoOpProgressReporterNtB2_16ProgressReporter15set_file_counts
FN:17,_RNvXNtNtCs4PyLZvEkasu_7gittype9extractor8progressNtB2_20NoOpProgressReporterNtB2_16ProgressReporter16set_current_file
FN:15,_RNvXNtNtCs4PyLZvEkasu_7gittype9extractor8progressNtB2_20NoOpProgressReporterNtB2_16ProgressReporter9set_phase
FN:70,_RNvXs1_NtNtCs4PyLZvEkasu_7gittype9extractor8progressNtB5_23ConsoleProgressReporterNtB5_16ProgressReporter12set_progress
FN:113,_RNvXs1_NtNtCs4PyLZvEkasu_7gittype9extractor8progressNtB5_23ConsoleProgressReporterNtB5_16ProgressReporter14update_spinner
FN:95,_RNvXs1_NtNtCs4PyLZvEkasu_7gittype9extractor8progressNtB5_23ConsoleProgressReporterNtB5_16ProgressReporter15set_file_counts
FN:74,_RNvXs1_NtNtCs4PyLZvEkasu_7gittype9extractor8progressNtB5_23ConsoleProgressReporterNtB5_16ProgressReporter16set_current_file
FN:58,_RNvXs1_NtNtCs4PyLZvEkasu_7gittype9extractor8progressNtB5_23ConsoleProgressReporterNtB5_16ProgressReporter9set_phase
FN:30,_RNvXs_NtNtCs4PyLZvEkasu_7gittype9extractor8progressNtB4_23ConsoleProgressReporterNtNtCs66KPHxksi63_4core7default7Default7default
FN:7,_RNvYpNtNtNtCs4PyLZvEkasu_7gittype9extractor8progress16ProgressReporter6finishB9_
FN:81,_RNCNvXs1_NtNtCscZjyiejqBjN_7gittype9extractor8progressNtB7_23ConsoleProgressReporterNtB7_16ProgressReporter16set_current_file0Bb_
FN:45,_RNvMs0_NtNtCscZjyiejqBjN_7gittype9extractor8progressNtB5_23ConsoleProgressReporter16get_spinner_char
FN:50,_RNvMs0_NtNtCscZjyiejqBjN_7gittype9extractor8progressNtB5_23ConsoleProgressReporter19create_progress_bar
FN:36,_RNvMs0_NtNtCscZjyiejqBjN_7gittype9extractor8progressNtB5_23ConsoleProgressReporter3new
FN:16,_RNvXNtNtCscZjyiejqBjN_7gittype9extractor8progressNtB2_20NoOpProgressReporterNtB2_16ProgressReporter12set_progress
FN:19,_RNvXNtNtCscZjyiejqBjN_7gittype9extractor8progressNtB2_20NoOpProgressReporterNtB2_16ProgressReporter14update_spinner
FN:18,_RNvXNtNtCscZjyiejqBjN_7gittype9extractor8progressNtB2_20NoOpProgressReporterNtB2_16ProgressReporter15set_file_counts
FN:17,_RNvXNtNtCscZjyiejqBjN_7gittype9extractor8progressNtB2_20NoOpProgressReporterNtB2_16ProgressReporter16set_current_file
FN:15,_RNvXNtNtCscZjyiejqBjN_7gittype9extractor8progressNtB2_20NoOpProgressReporterNtB2_16ProgressReporter9set_phase
FN:70,_RNvXs1_NtNtCscZjyiejqBjN_7gittype9extractor8progressNtB5_23ConsoleProgressReporterNtB5_16ProgressReporter12set_progress
FN:113,_RNvXs1_NtNtCscZjyiejqBjN_7gittype9extractor8progressNtB5_23ConsoleProgressReporterNtB5_16ProgressReporter14update_spinner
FN:95,_RNvXs1_NtNtCscZjyiejqBjN_7gittype9extractor8progressNtB5_23ConsoleProgressReporterNtB5_16ProgressReporter15set_file_counts
FN:74,_RNvXs1_NtNtCscZjyiejqBjN_7gittype9extractor8progressNtB5_23ConsoleProgressReporterNtB5_16ProgressReporter16set_current_file
FN:58,_RNvXs1_NtNtCscZjyiejqBjN_7gittype9extractor8progressNtB5_23ConsoleProgressReporterNtB5_16ProgressReporter9set_phase
FN:30,_RNvXs_NtNtCscZjyiejqBjN_7gittype9extractor8progressNtB4_23ConsoleProgressReporterNtNtCs66KPHxksi63_4core7default7Default7default
FN:7,_RNvYpNtNtNtCscZjyiejqBjN_7gittype9extractor8progress16ProgressReporter6finishB9_
FNDA:0,_RNCNvXs1_NtNtCs4PyLZvEkasu_7gittype9extractor8progressNtB7_23ConsoleProgressReporterNtB7_16ProgressReporter16set_current_file0Bb_
FNDA:0,_RNvMs0_NtNtCs4PyLZvEkasu_7gittype9extractor8progressNtB5_23ConsoleProgressReporter16get_spinner_char
FNDA:0,_RNvMs0_NtNtCs4PyLZvEkasu_7gittype9extractor8progressNtB5_23ConsoleProgressReporter19create_progress_bar
FNDA:0,_RNvMs0_NtNtCs4PyLZvEkasu_7gittype9extractor8progressNtB5_23ConsoleProgressReporter3new
FNDA:0,_RNvXNtNtCs4PyLZvEkasu_7gittype9extractor8progressNtB2_20NoOpProgressReporterNtB2_16ProgressReporter12set_progress
FNDA:27,_RNvXNtNtCs4PyLZvEkasu_7gittype9extractor8progressNtB2_20NoOpProgressReporterNtB2_16ProgressReporter14update_spinner
FNDA:35,_RNvXNtNtCs4PyLZvEkasu_7gittype9extractor8progressNtB2_20NoOpProgressReporterNtB2_16ProgressReporter15set_file_counts
FNDA:8,_RNvXNtNtCs4PyLZvEkasu_7gittype9extractor8progressNtB2_20NoOpProgressReporterNtB2_16ProgressReporter16set_current_file
FNDA:30,_RNvXNtNtCs4PyLZvEkasu_7gittype9extractor8progressNtB2_20NoOpProgressReporterNtB2_16ProgressReporter9set_phase
FNDA:0,_RNvXs1_NtNtCs4PyLZvEkasu_7gittype9extractor8progressNtB5_23ConsoleProgressReporterNtB5_16ProgressReporter12set_progress
FNDA:0,_RNvXs1_NtNtCs4PyLZvEkasu_7gittype9extractor8progressNtB5_23ConsoleProgressReporterNtB5_16ProgressReporter14update_spinner
FNDA:0,_RNvXs1_NtNtCs4PyLZvEkasu_7gittype9extractor8progressNtB5_23ConsoleProgressReporterNtB5_16ProgressReporter15set_file_counts
FNDA:0,_RNvXs1_NtNtCs4PyLZvEkasu_7gittype9extractor8progressNtB5_23ConsoleProgressReporterNtB5_16ProgressReporter16set_current_file
FNDA:0,_RNvXs1_NtNtCs4PyLZvEkasu_7gittype9extractor8progressNtB5_23ConsoleProgressReporterNtB5_16ProgressReporter9set_phase
FNDA:0,_RNvXs_NtNtCs4PyLZvEkasu_7gittype9extractor8progressNtB4_23ConsoleProgressReporterNtNtCs66KPHxksi63_4core7default7Default7default
FNDA:0,_RNvYpNtNtNtCs4PyLZvEkasu_7gittype9extractor8progress16ProgressReporter6finishB9_
FNDA:0,_RNCNvXs1_NtNtCscZjyiejqBjN_7gittype9extractor8progressNtB7_23ConsoleProgressReporterNtB7_16ProgressReporter16set_current_file0Bb_
FNDA:0,_RNvMs0_NtNtCscZjyiejqBjN_7gittype9extractor8progressNtB5_23ConsoleProgressReporter16get_spinner_char
FNDA:0,_RNvMs0_NtNtCscZjyiejqBjN_7gittype9extractor8progressNtB5_23ConsoleProgressReporter19create_progress_bar
FNDA:0,_RNvMs0_NtNtCscZjyiejqBjN_7gittype9extractor8progressNtB5_23ConsoleProgressReporter3new
FNDA:0,_RNvXNtNtCscZjyiejqBjN_7gittype9extractor8progressNtB2_20NoOpProgressReporterNtB2_16ProgressReporter12set_progress
FNDA:0,_RNvXNtNtCscZjyiejqBjN_7gittype9extractor8progressNtB2_20NoOpProgressReporterNtB2_16ProgressReporter14update_spinner
FNDA:0,_RNvXNtNtCscZjyiejqBjN_7gittype9extractor8progressNtB2_20NoOpProgressReporterNtB2_16ProgressReporter15set_file_counts
FNDA:0,_RNvXNtNtCscZjyiejqBjN_7gittype9extractor8progressNtB2_20NoOpProgressReporterNtB2_16ProgressReporter16set_current_file
FNDA:0,_RNvXNtNtCscZjyiejqBjN_7gittype9extractor8progressNtB2_20NoOpProgressReporterNtB2_16ProgressReporter9set_phase
FNDA:0,_RNvXs1_NtNtCscZjyiejqBjN_7gittype9extractor8progressNtB5_23ConsoleProgressReporterNtB5_16ProgressReporter12set_progress
FNDA:0,_RNvXs1_NtNtCscZjyiejqBjN_7gittype9extractor8progressNtB5_23ConsoleProgressReporterNtB5_16ProgressReporter14update_spinner
FNDA:0,_RNvXs1_NtNtCscZjyiejqBjN_7gittype9extractor8progressNtB5_23ConsoleProgressReporterNtB5_16ProgressReporter15set_file_counts
FNDA:0,_RNvXs1_NtNtCscZjyiejqBjN_7gittype9extractor8progressNtB5_23ConsoleProgressReporterNtB5_16ProgressReporter16set_current_file
FNDA:0,_RNvXs1_NtNtCscZjyiejqBjN_7gittype9extractor8progressNtB5_23ConsoleProgressReporterNtB5_16ProgressReporter9set_phase
FNDA:0,_RNvXs_NtNtCscZjyiejqBjN_7gittype9extractor8progressNtB4_23ConsoleProgressReporterNtNtCs66KPHxksi63_4core7default7Default7default
FNDA:0,_RNvYpNtNtNtCscZjyiejqBjN_7gittype9extractor8progress16ProgressReporter6finishB9_
FNF:16
FNH:4
DA:7,0
DA:8,0
DA:9,0
DA:15,30
DA:16,0
DA:17,8
DA:18,35
DA:19,27
DA:30,0
DA:31,0
DA:32,0
DA:36,0
DA:37,0
DA:38,0
DA:39,0
DA:40,0
DA:41,0
DA:42,0
DA:43,0
DA:45,0
DA:46,0
DA:47,0
DA:48,0
DA:50,0
DA:51,0
DA:52,0
DA:53,0
DA:54,0
DA:58,0
DA:59,0
DA:60,0
DA:61,0
DA:62,0
DA:63,0
DA:64,0
DA:65,0
DA:66,0
DA:67,0
DA:68,0
DA:70,0
DA:71,0
DA:72,0
DA:74,0
DA:75,0
DA:76,0
DA:77,0
DA:78,0
DA:79,0
DA:80,0
DA:81,0
DA:82,0
DA:84,0
DA:85,0
DA:88,0
DA:91,0
DA:92,0
DA:93,0
DA:95,0
DA:96,0
DA:97,0
DA:98,0
DA:99,0
DA:100,0
DA:101,0
DA:102,0
DA:103,0
DA:104,0
DA:105,0
DA:106,0
DA:107,0
DA:108,0
DA:109,0
DA:110,0
DA:111,0
DA:113,0
DA:114,0
DA:115,0
DA:116,0
BRF:0
BRH:0
LF:79
LH:4
end_of_record
SF:/home/owner/.ghq/github.com/unhappychoice/gittype/src/extractor/repository_loader.rs
FN:39,_RINvMNtNtCs4PyLZvEkasu_7gittype9extractor17repository_loaderNtB3_16RepositoryLoader45load_challenges_from_repository_with_progressNtNtB5_8progress20NoOpProgressReporterEB7_
FN:130,_RNCNvNvMNtNtCs4PyLZvEkasu_7gittype9extractor17repository_loaderNtB6_16RepositoryLoader20collect_source_files17collect_recursive0Ba_
FN:136,_RNCNvNvMNtNtCs4PyLZvEkasu_7gittype9extractor17repository_loaderNtB6_16RepositoryLoader20collect_source_files17collect_recursives_0Ba_
FN:69,_RINvMNtNtCs4PyLZvEkasu_7gittype9extractor17repository_loaderNtB3_16RepositoryLoader31load_challenges_with_difficultypEB7_
FN:163,_RNvMNtNtCs4PyLZvEkasu_7gittype9extractor17repository_loaderNtB2_16RepositoryLoader12get_git_info
FN:113,_RNvMNtNtCs4PyLZvEkasu_7gittype9extractor17repository_loaderNtB2_16RepositoryLoader20collect_source_files
FN:27,_RNvMNtNtCs4PyLZvEkasu_7gittype9extractor17repository_loaderNtB2_16RepositoryLoader31load_challenges_from_repository
FN:151,_RNvMNtNtCs4PyLZvEkasu_7gittype9extractor17repository_loaderNtB2_16RepositoryLoader32load_all_files_as_zen_challenges
FN:16,_RNvMNtNtCs4PyLZvEkasu_7gittype9extractor17repository_loaderNtB2_16RepositoryLoader3new
FN:119,_RNvNvMNtNtCs4PyLZvEkasu_7gittype9extractor17repository_loaderNtB4_16RepositoryLoader20collect_source_files17collect_recursive
FN:69,_RINvMNtNtCscZjyiejqBjN_7gittype9extractor17repository_loaderNtB3_16RepositoryLoader31load_challenges_with_difficultypEB7_
FN:39,_RINvMNtNtCscZjyiejqBjN_7gittype9extractor17repository_loaderNtB3_16RepositoryLoader45load_challenges_from_repository_with_progresspEB7_
FN:130,_RNCNvNvMNtNtCscZjyiejqBjN_7gittype9extractor17repository_loaderNtB6_16RepositoryLoader20collect_source_files17collect_recursive0Ba_
FN:136,_RNCNvNvMNtNtCscZjyiejqBjN_7gittype9extractor17repository_loaderNtB6_16RepositoryLoader20collect_source_files17collect_recursives_0Ba_
FN:163,_RNvMNtNtCscZjyiejqBjN_7gittype9extractor17repository_loaderNtB2_16RepositoryLoader12get_git_info
FN:113,_RNvMNtNtCscZjyiejqBjN_7gittype9extractor17repository_loaderNtB2_16RepositoryLoader20collect_source_files
FN:27,_RNvMNtNtCscZjyiejqBjN_7gittype9extractor17repository_loaderNtB2_16RepositoryLoader31load_challenges_from_repository
FN:151,_RNvMNtNtCscZjyiejqBjN_7gittype9extractor17repository_loaderNtB2_16RepositoryLoader32load_all_files_as_zen_challenges
FN:16,_RNvMNtNtCscZjyiejqBjN_7gittype9extractor17repository_loaderNtB2_16RepositoryLoader3new
FN:119,_RNvNvMNtNtCscZjyiejqBjN_7gittype9extractor17repository_loaderNtB4_16RepositoryLoader20collect_source_files17collect_recursive
FN:39,_RINvMNtNtCs4PyLZvEkasu_7gittype9extractor17repository_loaderNtB3_16RepositoryLoader45load_challenges_from_repository_with_progressNtNtNtNtB7_4game7screens14loading_screen13LoadingScreenECsbo6X0jOJBx_7gittype
FNDA:4,_RINvMNtNtCs4PyLZvEkasu_7gittype9extractor17repository_loaderNtB3_16RepositoryLoader45load_challenges_from_repository_with_progressNtNtB5_8progress20NoOpProgressReporterEB7_
FNDA:0,_RNCNvNvMNtNtCs4PyLZvEkasu_7gittype9extractor17repository_loaderNtB6_16RepositoryLoader20collect_source_files17collect_recursive0Ba_
FNDA:0,_RNCNvNvMNtNtCs4PyLZvEkasu_7gittype9extractor17repository_loaderNtB6_16RepositoryLoader20collect_source_files17collect_recursives_0Ba_
FNDA:0,_RINvMNtNtCs4PyLZvEkasu_7gittype9extractor17repository_loaderNtB3_16RepositoryLoader31load_challenges_with_difficultypEB7_
FNDA:0,_RNvMNtNtCs4PyLZvEkasu_7gittype9extractor17repository_loaderNtB2_16RepositoryLoader12get_git_info
FNDA:0,_RNvMNtNtCs4PyLZvEkasu_7gittype9extractor17repository_loaderNtB2_16RepositoryLoader20collect_source_files
FNDA:4,_RNvMNtNtCs4PyLZvEkasu_7gittype9extractor17repository_loaderNtB2_16RepositoryLoader31load_challenges_from_repository
FNDA:0,_RNvMNtNtCs4PyLZvEkasu_7gittype9extractor17repository_loaderNtB2_16RepositoryLoader32load_all_files_as_zen_challenges
FNDA:4,_RNvMNtNtCs4PyLZvEkasu_7gittype9extractor17repository_loaderNtB2_16RepositoryLoader3new
FNDA:0,_RNvNvMNtNtCs4PyLZvEkasu_7gittype9extractor17repository_loaderNtB4_16RepositoryLoader20collect_source_files17collect_recursive
FNDA:0,_RINvMNtNtCscZjyiejqBjN_7gittype9extractor17repository_loaderNtB3_16RepositoryLoader31load_challenges_with_difficultypEB7_
FNDA:0,_RINvMNtNtCscZjyiejqBjN_7gittype9extractor17repository_loaderNtB3_16RepositoryLoader45load_challenges_from_repository_with_progresspEB7_
FNDA:0,_RNCNvNvMNtNtCscZjyiejqBjN_7gittype9extractor17repository_loaderNtB6_16RepositoryLoader20collect_source_files17collect_recursive0Ba_
FNDA:0,_RNCNvNvMNtNtCscZjyiejqBjN_7gittype9extractor17repository_loaderNtB6_16RepositoryLoader20collect_source_files17collect_recursives_0Ba_
FNDA:0,_RNvMNtNtCscZjyiejqBjN_7gittype9extractor17repository_loaderNtB2_16RepositoryLoader12get_git_info
FNDA:0,_RNvMNtNtCscZjyiejqBjN_7gittype9extractor17repository_loaderNtB2_16RepositoryLoader20collect_source_files
FNDA:0,_RNvMNtNtCscZjyiejqBjN_7gittype9extractor17repository_loaderNtB2_16RepositoryLoader31load_challenges_from_repository
FNDA:0,_RNvMNtNtCscZjyiejqBjN_7gittype9extractor17repository_loaderNtB2_16RepositoryLoader32load_all_files_as_zen_challenges
FNDA:0,_RNvMNtNtCscZjyiejqBjN_7gittype9extractor17repository_loaderNtB2_16RepositoryLoader3new
FNDA:0,_RNvNvMNtNtCscZjyiejqBjN_7gittype9extractor17repository_loaderNtB4_16RepositoryLoader20collect_source_files17collect_recursive
FNDA:0,_RINvMNtNtCs4PyLZvEkasu_7gittype9extractor17repository_loaderNtB3_16RepositoryLoader45load_challenges_from_repository_with_progressNtNtNtNtB7_4game7screens14loading_screen13LoadingScreenECsbo6X0jOJBx_7gittype
FNF:10
FNH:3
DA:16,4
DA:17,4
DA:18,4
DA:20,4
DA:21,4
DA:22,4
DA:23,4
DA:24,4
DA:25,4
DA:27,4
DA:28,4
DA:29,4
DA:30,4
DA:31,4
DA:32,4
DA:33,4
DA:34,4
DA:35,4
DA:37,4
DA:39,4
DA:40,4
DA:41,4
DA:42,4
DA:43,4
DA:44,4
DA:45,4
DA:46,1
DA:47,3
DA:50,3
DA:52,3
DA:53,3
DA:54,3
DA:55,3
DA:57,3
DA:58,0
DA:59,3
DA:61,3
DA:63,3
DA:65,3
DA:66,3
DA:67,4
DA:69,0
DA:70,0
DA:71,0
DA:72,0
DA:73,0
DA:74,0
DA:75,0
DA:78,0
DA:79,0
DA:80,0
DA:82,0
DA:84,0
DA:85,0
DA:86,0
DA:87,0
DA:88,0
DA:91,0
DA:92,0
DA:93,0
DA:94,0
DA:95,0
DA:96,0
DA:98,0
DA:99,0
DA:100,0
DA:102,0
DA:103,0
DA:104,0
DA:105,0
DA:107,0
DA:108,0
DA:111,0
DA:113,0
DA:116,0
DA:117,0
DA:119,0
DA:120,0
DA:121,0
DA:122,0
DA:123,0
DA:124,0
DA:125,0
DA:126,0
DA:127,0
DA:129,0
DA:130,0
DA:131,0
DA:133,0
DA:134,0
DA:135,0
DA:136,0
DA:137,0
DA:138,0
DA:139,0
DA:140,0
DA:142,0
DA:143,0
DA:144,0
DA:146,0
DA:148,0
DA:149,0
DA:151,0
DA:153,0
DA:156,0
DA:157,0
DA:158,0
DA:160,0
DA:161,0
DA:163,0
DA:164,0
DA:165,0
BRF:0
BRH:0
LF:114
LH:40
end_of_record
SF:/home/owner/.ghq/github.com/unhappychoice/gittype/src/game/ascii_digits.rs
FN:3,_RNvNtNtCs4PyLZvEkasu_7gittype4game12ascii_digits18get_digit_patterns
FN:3,_RNvNtNtCscZjyiejqBjN_7gittype4game12ascii_digits18get_digit_patterns
FNDA:0,_RNvNtNtCs4PyLZvEkasu_7gittype4game12ascii_digits18get_digit_patterns
FNDA:0,_RNvNtNtCscZjyiejqBjN_7gittype4game12ascii_digits18get_digit_patterns
FNF:1
FNH:0
DA:3,0
DA:4,0
DA:5,0
DA:6,0
DA:7,0
DA:8,0
DA:9,0
DA:10,0
DA:11,0
DA:12,0
DA:13,0
DA:14,0
DA:15,0
DA:16,0
DA:17,0
DA:18,0
DA:19,0
DA:20,0
DA:21,0
DA:22,0
DA:23,0
DA:24,0
DA:25,0
DA:26,0
BRF:0
BRH:0
LF:24
LH:0
end_of_record
SF:/home/owner/.ghq/github.com/unhappychoice/gittype/src/game/ascii_rank_titles_generated.rs
FN:5,_RNvNtNtCs4PyLZvEkasu_7gittype4game27ascii_rank_titles_generated21get_all_rank_patterns
FN:703,_RNvNtNtCs4PyLZvEkasu_7gittype4game27ascii_rank_titles_generated22get_rank_title_display
FN:708,_RNCNvNtNtCs4PyLZvEkasu_7gittype4game27ascii_rank_titles_generated22get_rank_title_display0B7_
FN:708,_RNCNvNtNtCscZjyiejqBjN_7gittype4game27ascii_rank_titles_generated22get_rank_title_display0B7_
FN:5,_RNvNtNtCscZjyiejqBjN_7gittype4game27ascii_rank_titles_generated21get_all_rank_patterns
FN:703,_RNvNtNtCscZjyiejqBjN_7gittype4game27ascii_rank_titles_generated22get_rank_title_display
FNDA:136,_RNvNtNtCs4PyLZvEkasu_7gittype4game27ascii_rank_titles_generated21get_all_rank_patterns
FNDA:136,_RNvNtNtCs4PyLZvEkasu_7gittype4game27ascii_rank_titles_generated22get_rank_title_display
FNDA:0,_RNCNvNtNtCs4PyLZvEkasu_7gittype4game27ascii_rank_titles_generated22get_rank_title_display0B7_
FNDA:0,_RNCNvNtNtCscZjyiejqBjN_7gittype4game27ascii_rank_titles_generated22get_rank_title_display0B7_
FNDA:0,_RNvNtNtCscZjyiejqBjN_7gittype4game27ascii_rank_titles_generated21get_all_rank_patterns
FNDA:0,_RNvNtNtCscZjyiejqBjN_7gittype4game27ascii_rank_titles_generated22get_rank_title_display
FNF:3
FNH:2
DA:5,136
DA:6,136
DA:9,136
DA:10,136
DA:11,136
DA:12,136
DA:13,136
DA:14,136
DA:15,136
DA:19,136
DA:20,136
DA:21,136
DA:22,136
DA:23,136
DA:24,136
DA:25,136
DA:29,136
DA:30,136
DA:31,136
DA:32,136
DA:33,136
DA:34,136
DA:35,136
DA:39,136
DA:40,136
DA:41,136
DA:42,136
DA:43,136
DA:44,136
DA:45,136
DA:49,136
DA:50,136
DA:51,136
DA:52,136
DA:53,136
DA:54,136
DA:55,136
DA:59,136
DA:60,136
DA:61,136
DA:62,136
DA:63,136
DA:64,136
DA:65,136
DA:69,136
DA:70,136
DA:71,136
DA:72,136
DA:73,136
DA:74,136
DA:75,136
DA:79,136
DA:80,136
DA:81,136
DA:82,136
DA:83,136
DA:84,136
DA:85,136
DA:89,136
DA:90,136
DA:91,136
DA:92,136
DA:93,136
DA:94,136
DA:95,136
DA:96,136
DA:97,136
DA:98,136
DA:99,136
DA:100,136
DA:104,136
DA:105,136
DA:106,136
DA:107,136
DA:108,136
DA:109,136
DA:110,136
DA:114,136
DA:115,136
DA:116,136
DA:117,136
DA:118,136
DA:119,136
DA:120,136
DA:124,136
DA:125,136
DA:126,136
DA:127,136
DA:128,136
DA:129,136
DA:130,136
DA:134,136
DA:135,136
DA:136,136
DA:137,136
DA:138,136
DA:139,136
DA:140,136
DA:144,136
DA:145,136
DA:146,136
DA:147,136
DA:148,136
DA:149,136
DA:150,136
DA:154,136
DA:155,136
DA:156,136
DA:157,136
DA:158,136
DA:159,136
DA:160,136
DA:164,136
DA:165,136
DA:166,136
DA:167,136
DA:168,136
DA:169,136
DA:170,136
DA:174,136
DA:175,136
DA:176,136
DA:177,136
DA:178,136
DA:179,136
DA:180,136
DA:181,136
DA:182,136
DA:183,136
DA:184,136
DA:188,136
DA:189,136
DA:190,136
DA:191,136
DA:192,136
DA:193,136
DA:194,136
DA:195,136
DA:196,136
DA:197,136
DA:198,136
DA:199,136
DA:203,136
DA:204,136
DA:205,136
DA:206,136
DA:207,136
DA:208,136
DA:209,136
DA:213,136
DA:214,136
DA:215,136
DA:216,136
DA:217,136
DA:218,136
DA:219,136
DA:220,136
DA:221,136
DA:222,136
DA:223,136
DA:227,136
DA:228,136
DA:229,136
DA:230,136
DA:231,136
DA:232,136
DA:233,136
DA:237,136
DA:238,136
DA:239,136
DA:240,136
DA:241,136
DA:242,136
DA:243,136
DA:247,136
DA:248,136
DA:249,136
DA:250,136
DA:251,136
DA:252,136
DA:253,136
DA:257,136
DA:258,136
DA:259,136
DA:260,136
DA:261,136
DA:262,136
DA:263,136
DA:267,136
DA:268,136
DA:269,136
DA:270,136
DA:271,136
DA:272,136
DA:273,136
DA:277,136
DA:278,136
DA:279,136
DA:280,136
DA:281,136
DA:282,136
DA:283,136
DA:287,136
DA:288,136
DA:289,136
DA:290,136
DA:291,136
DA:292,136
DA:293,136
DA:297,136
DA:298,136
DA:299,136
DA:300,136
DA:301,136
DA:302,136
DA:303,136
DA:307,136
DA:308,136
DA:309,136
DA:310,136
DA:311,136
DA:312,136
DA:313,136
DA:314,136
DA:315,136
DA:316,136
DA:317,136
DA:321,136
DA:322,136
DA:323,136
DA:324,136
DA:325,136
DA:326,136
DA:327,136
DA:331,136
DA:332,136
DA:333,136
DA:334,136
DA:335,136
DA:336,136
DA:337,136
DA:341,136
DA:342,136
DA:343,136
DA:344,136
DA:345,136
DA:346,136
DA:347,136
DA:351,136
DA:352,136
DA:353,136
DA:354,136
DA:355,136
DA:356,136
DA:357,136
DA:358,136
DA:359,136
DA:360,136
DA:361,136
DA:365,136
DA:366,136
DA:367,136
DA:368,136
DA:369,136
DA:370,136
DA:371,136
DA:372,136
DA:373,136
DA:374,136
DA:375,136
DA:379,136
DA:380,136
DA:381,136
DA:382,136
DA:383,136
DA:384,136
DA:385,136
DA:389,136
DA:390,136
DA:391,136
DA:392,136
DA:393,136
DA:394,136
DA:395,136
DA:399,136
DA:400,136
DA:401,136
DA:402,136
DA:403,136
DA:404,136
DA:405,136
DA:409,136
DA:410,136
DA:411,136
DA:412,136
DA:413,136
DA:414,136
DA:415,136
DA:416,136
DA:417,136
DA:418,136
DA:419,136
DA:423,136
DA:424,136
DA:425,136
DA:426,136
DA:427,136
DA:428,136
DA:429,136
DA:430,136
DA:431,136
DA:432,136
DA:433,136
DA:437,136
DA:438,136
DA:439,136
DA:440,136
DA:441,136
DA:442,136
DA:443,136
DA:447,136
DA:448,136
DA:449,136
DA:450,136
DA:451,136
DA:452,136
DA:453,136
DA:454,136
DA:455,136
DA:456,136
DA:457,136
DA:461,136
DA:462,136
DA:463,136
DA:464,136
DA:465,136
DA:466,136
DA:467,136
DA:471,136
DA:472,136
DA:473,136
DA:474,136
DA:475,136
DA:476,136
DA:477,136
DA:478,136
DA:479,136
DA:480,136
DA:481,136
DA:485,136
DA:486,136
DA:487,136
DA:488,136
DA:489,136
DA:490,136
DA:491,136
DA:495,136
DA:496,136
DA:497,136
DA:498,136
DA:499,136
DA:500,136
DA:501,136
DA:505,136
DA:506,136
DA:507,136
DA:508,136
DA:509,136
DA:510,136
DA:511,136
DA:515,136
DA:516,136
DA:517,136
DA:518,136
DA:519,136
DA:520,136
DA:521,136
DA:522,136
DA:523,136
DA:524,136
DA:525,136
DA:529,136
DA:530,136
DA:531,136
DA:532,136
DA:533,136
DA:534,136
DA:535,136
DA:539,136
DA:540,136
DA:541,136
DA:542,136
DA:543,136
DA:544,136
DA:545,136
DA:549,136
DA:550,136
DA:551,136
DA:552,136
DA:553,136
DA:554,136
DA:555,136
DA:556,136
DA:557,136
DA:558,136
DA:559,136
DA:563,136
DA:564,136
DA:565,136
DA:566,136
DA:567,136
DA:568,136
DA:569,136
DA:573,136
DA:574,136
DA:575,136
DA:576,136
DA:577,136
DA:578,136
DA:579,136
DA:583,136
DA:584,136
DA:585,136
DA:586,136
DA:587,136
DA:588,136
DA:589,136
DA:593,136
DA:594,136
DA:595,136
DA:596,136
DA:597,136
DA:598,136
DA:599,136
DA:600,136
DA:601,136
DA:602,136
DA:603,136
DA:607,136
DA:608,136
DA:609,136
DA:610,136
DA:611,136
DA:612,136
DA:613,136
DA:617,136
DA:618,136
DA:619,136
DA:620,136
DA:621,136
DA:622,136
DA:623,136
DA:627,136
DA:628,136
DA:629,136
DA:630,136
DA:631,136
DA:632,136
DA:633,136
DA:637,136
DA:638,136
DA:639,136
DA:640,136
DA:641,136
DA:642,136
DA:643,136
DA:647,136
DA:648,136
DA:649,136
DA:650,136
DA:651,136
DA:652,136
DA:653,136
DA:657,136
DA:658,136
DA:659,136
DA:660,136
DA:661,136
DA:662,136
DA:663,136
DA:667,136
DA:668,136
DA:669,136
DA:670,136
DA:671,136
DA:672,136
DA:673,136
DA:674,136
DA:675,136
DA:676,136
DA:677,136
DA:681,136
DA:682,136
DA:683,136
DA:684,136
DA:685,136
DA:686,136
DA:687,136
DA:691,136
DA:692,136
DA:693,136
DA:694,136
DA:695,136
DA:696,136
DA:697,136
DA:700,136
DA:701,136
DA:703,136
DA:704,136
DA:705,136
DA:706,136
DA:707,136
DA:708,136
DA:709,136
BRF:0
BRH:0
LF:515
LH:514
end_of_record
SF:/home/owner/.ghq/github.com/unhappychoice/gittype/src/game/challenge.rs
FN:41,_RNvMNtNtCs4PyLZvEkasu_7gittype4game9challengeNtB2_9Challenge13with_language
FN:29,_RNvMNtNtCs4PyLZvEkasu_7gittype4game9challengeNtB2_9Challenge16with_source_info
FN:56,_RNvMNtNtCs4PyLZvEkasu_7gittype4game9challengeNtB2_9Challenge17get_display_title
FN:46,_RNvMNtNtCs4PyLZvEkasu_7gittype4game9challengeNtB2_9Challenge19with_comment_ranges
FN:51,_RNvMNtNtCs4PyLZvEkasu_7gittype4game9challengeNtB2_9Challenge21with_difficulty_level
FN:16,_RNvMNtNtCs4PyLZvEkasu_7gittype4game9challengeNtB2_9Challenge3new
FN:41,_RNvMNtNtCscZjyiejqBjN_7gittype4game9challengeNtB2_9Challenge13with_language
FN:29,_RNvMNtNtCscZjyiejqBjN_7gittype4game9challengeNtB2_9Challenge16with_source_info
FN:56,_RNvMNtNtCscZjyiejqBjN_7gittype4game9challengeNtB2_9Challenge17get_display_title
FN:46,_RNvMNtNtCscZjyiejqBjN_7gittype4game9challengeNtB2_9Challenge19with_comment_ranges
FN:51,_RNvMNtNtCscZjyiejqBjN_7gittype4game9challengeNtB2_9Challenge21with_difficulty_level
FN:16,_RNvMNtNtCscZjyiejqBjN_7gittype4game9challengeNtB2_9Challenge3new
FNDA:58,_RNvMNtNtCs4PyLZvEkasu_7gittype4game9challengeNtB2_9Challenge13with_language
FNDA:24,_RNvMNtNtCs4PyLZvEkasu_7gittype4game9challengeNtB2_9Challenge16with_source_info
FNDA:0,_RNvMNtNtCs4PyLZvEkasu_7gittype4game9challengeNtB2_9Challenge17get_display_title
FNDA:24,_RNvMNtNtCs4PyLZvEkasu_7gittype4game9challengeNtB2_9Challenge19with_comment_ranges
FNDA:35,_RNvMNtNtCs4PyLZvEkasu_7gittype4game9challengeNtB2_9Challenge21with_difficulty_level
FNDA:58,_RNvMNtNtCs4PyLZvEkasu_7gittype4game9challengeNtB2_9Challenge3new
FNDA:0,_RNvMNtNtCscZjyiejqBjN_7gittype4game9challengeNtB2_9Challenge13with_language
FNDA:0,_RNvMNtNtCscZjyiejqBjN_7gittype4game9challengeNtB2_9Challenge16with_source_info
FNDA:0,_RNvMNtNtCscZjyiejqBjN_7gittype4game9challengeNtB2_9Challenge17get_display_title
FNDA:0,_RNvMNtNtCscZjyiejqBjN_7gittype4game9challengeNtB2_9Challenge19with_comment_ranges
FNDA:0,_RNvMNtNtCscZjyiejqBjN_7gittype4game9challengeNtB2_9Challenge21with_difficulty_level
FNDA:0,_RNvMNtNtCscZjyiejqBjN_7gittype4game9challengeNtB2_9Challenge3new
FNF:6
FNH:5
DA:16,58
DA:17,58
DA:18,58
DA:19,58
DA:20,58
DA:21,58
DA:22,58
DA:23,58
DA:24,58
DA:25,58
DA:26,58
DA:27,58
DA:29,24
DA:30,24
DA:31,24
DA:32,24
DA:33,24
DA:34,24
DA:35,24
DA:36,24
DA:37,24
DA:38,24
DA:39,24
DA:41,58
DA:42,58
DA:43,58
DA:44,58
DA:46,24
DA:47,24
DA:48,24
DA:49,24
DA:51,35
DA:52,35
DA:53,35
DA:54,35
DA:56,0
DA:57,0
DA:58,0
DA:59,0
DA:61,0
DA:64,0
DA:66,0
BRF:0
BRH:0
LF:42
LH:35
end_of_record
SF:/home/owner/.ghq/github.com/unhappychoice/gittype/src/game/display.rs
FN:338,_RNCNvMNtNtCs4PyLZvEkasu_7gittype4game7displayNtB4_11GameDisplay22is_position_in_comment0B8_
FN:279,_RNCNvMNtNtCs4PyLZvEkasu_7gittype4game7displayNtB4_11GameDisplay27display_challenge_with_info0B8_
FN:338,_RNCNvMNtNtCscZjyiejqBjN_7gittype4game7displayNtB4_11GameDisplay22is_position_in_comment0B8_
FN:279,_RNCNvMNtNtCscZjyiejqBjN_7gittype4game7displayNtB4_11GameDisplay27display_challenge_with_info0B8_
FN:16,_RNvMNtNtCscZjyiejqBjN_7gittype4game7displayNtB2_11GameDisplay17display_challenge
FN:300,_RNvMNtNtCscZjyiejqBjN_7gittype4game7displayNtB2_11GameDisplay18print_visible_char
FN:326,_RNvMNtNtCscZjyiejqBjN_7gittype4game7displayNtB2_11GameDisplay22find_line_for_position
FN:335,_RNvMNtNtCscZjyiejqBjN_7gittype4game7displayNtB2_11GameDisplay22is_position_in_comment
FN:38,_RNvMNtNtCscZjyiejqBjN_7gittype4game7displayNtB2_11GameDisplay27display_challenge_with_info
FNDA:0,_RNCNvMNtNtCs4PyLZvEkasu_7gittype4game7displayNtB4_11GameDisplay22is_position_in_comment0B8_
FNDA:0,_RNCNvMNtNtCs4PyLZvEkasu_7gittype4game7displayNtB4_11GameDisplay27display_challenge_with_info0B8_
FNDA:0,_RNCNvMNtNtCscZjyiejqBjN_7gittype4game7displayNtB4_11GameDisplay22is_position_in_comment0B8_
FNDA:0,_RNCNvMNtNtCscZjyiejqBjN_7gittype4game7displayNtB4_11GameDisplay27display_challenge_with_info0B8_
FNDA:0,_RNvMNtNtCscZjyiejqBjN_7gittype4game7displayNtB2_11GameDisplay17display_challenge
FNDA:0,_RNvMNtNtCscZjyiejqBjN_7gittype4game7displayNtB2_11GameDisplay18print_visible_char
FNDA:0,_RNvMNtNtCscZjyiejqBjN_7gittype4game7displayNtB2_11GameDisplay22find_line_for_position
FNDA:0,_RNvMNtNtCscZjyiejqBjN_7gittype4game7displayNtB2_11GameDisplay22is_position_in_comment
FNDA:0,_RNvMNtNtCscZjyiejqBjN_7gittype4game7displayNtB2_11GameDisplay27display_challenge_with_info
FNF:7
FNH:0
DA:16,0
DA:17,0
DA:18,0
DA:19,0
DA:20,0
DA:21,0
DA:22,0
DA:23,0
DA:24,0
DA:25,0
DA:26,0
DA:27,0
DA:28,0
DA:29,0
DA:30,0
DA:31,0
DA:32,0
DA:35,0
DA:38,0
DA:39,0
DA:40,0
DA:41,0
DA:42,0
DA:43,0
DA:44,0
DA:45,0
DA:46,0
DA:47,0
DA:48,0
DA:49,0
DA:50,0
DA:53,0
DA:57,0
DA:60,0
DA:61,0
DA:62,0
DA:63,0
DA:69,0
DA:71,0
DA:72,0
DA:74,0
DA:76,0
DA:77,0
DA:78,0
DA:80,0
DA:81,0
DA:82,0
DA:85,0
DA:86,0
DA:89,0
DA:92,0
DA:93,0
DA:95,0
DA:99,0
DA:100,0
DA:101,0
DA:102,0
DA:104,0
DA:106,0
DA:108,0
DA:109,0
DA:110,0
DA:111,0
DA:114,0
DA:115,0
DA:116,0
DA:117,0
DA:118,0
DA:119,0
DA:120,0
DA:121,0
DA:124,0
DA:126,0
DA:127,0
DA:128,0
DA:132,0
DA:133,0
DA:134,0
DA:135,0
DA:136,0
DA:139,0
DA:140,0
DA:141,0
DA:143,0
DA:144,0
DA:148,0
DA:149,0
DA:151,0
DA:153,0
DA:154,0
DA:155,0
DA:156,0
DA:157,0
DA:158,0
DA:161,0
DA:162,0
DA:163,0
DA:164,0
DA:167,0
DA:168,0
DA:169,0
DA:172,0
DA:173,0
DA:174,0
DA:175,0
DA:176,0
DA:179,0
DA:180,0
DA:181,0
DA:182,0
DA:183,0
DA:185,0
DA:188,0
DA:190,0
DA:192,0
DA:193,0
DA:197,0
DA:198,0
DA:200,0
DA:201,0
DA:205,0
DA:208,0
DA:209,0
DA:213,0
DA:215,0
DA:216,0
DA:218,0
DA:219,0
DA:221,0
DA:222,0
DA:225,0
DA:228,0
DA:229,0
DA:232,0
DA:236,0
DA:237,0
DA:240,0
DA:242,0
DA:243,0
DA:246,0
DA:248,0
DA:249,0
DA:253,0
DA:256,0
DA:257,0
DA:261,0
DA:263,0
DA:266,0
DA:270,0
DA:271,0
DA:272,0
DA:273,0
DA:275,0
DA:276,0
DA:277,0
DA:278,0
DA:279,0
DA:280,0
DA:281,0
DA:282,0
DA:284,0
DA:287,0
DA:292,0
DA:295,0
DA:296,0
DA:297,0
DA:298,0
DA:300,0
DA:301,0
DA:304,0
DA:308,0
DA:312,0
DA:314,0
DA:316,0
DA:318,0
DA:320,0
DA:323,0
DA:324,0
DA:326,0
DA:327,0
DA:328,0
DA:329,0
DA:330,0
DA:332,0
DA:333,0
DA:335,0
DA:336,0
DA:337,0
DA:338,0
DA:339,0
BRF:0
BRH:0
LF:192
LH:0
end_of_record
SF:/home/owner/.ghq/github.com/unhappychoice/gittype/src/game/display_optimized.rs
FN:436,_RNCNvMNtNtCs4PyLZvEkasu_7gittype4game17display_optimizedNtB4_20GameDisplayOptimized22is_position_in_comment0B8_
FN:118,_RNvMNtNtCs4PyLZvEkasu_7gittype4game17display_optimizedNtB2_20GameDisplayOptimized14display_header
FN:174,_RNvMNtNtCs4PyLZvEkasu_7gittype4game17display_optimizedNtB2_20GameDisplayOptimized15display_content
FN:383,_RNvMNtNtCs4PyLZvEkasu_7gittype4game17display_optimizedNtB2_20GameDisplayOptimized15display_metrics
FN:371,_RNvMNtNtCs4PyLZvEkasu_7gittype4game17display_optimizedNtB2_20GameDisplayOptimized18print_visible_char
FN:424,_RNvMNtNtCs4PyLZvEkasu_7gittype4game17display_optimizedNtB2_20GameDisplayOptimized22find_line_for_position
FN:433,_RNvMNtNtCs4PyLZvEkasu_7gittype4game17display_optimizedNtB2_20GameDisplayOptimized22is_position_in_comment
FN:275,_RNvMNtNtCs4PyLZvEkasu_7gittype4game17display_optimizedNtB2_20GameDisplayOptimized26render_character_optimized
FN:36,_RNvMNtNtCs4PyLZvEkasu_7gittype4game17display_optimizedNtB2_20GameDisplayOptimized27display_challenge_with_info
FN:27,_RNvMNtNtCs4PyLZvEkasu_7gittype4game17display_optimizedNtB2_20GameDisplayOptimized3new
FN:436,_RNCNvMNtNtCscZjyiejqBjN_7gittype4game17display_optimizedNtB4_20GameDisplayOptimized22is_position_in_comment0B8_
FN:118,_RNvMNtNtCscZjyiejqBjN_7gittype4game17display_optimizedNtB2_20GameDisplayOptimized14display_header
FN:174,_RNvMNtNtCscZjyiejqBjN_7gittype4game17display_optimizedNtB2_20GameDisplayOptimized15display_content
FN:383,_RNvMNtNtCscZjyiejqBjN_7gittype4game17display_optimizedNtB2_20GameDisplayOptimized15display_metrics
FN:371,_RNvMNtNtCscZjyiejqBjN_7gittype4game17display_optimizedNtB2_20GameDisplayOptimized18print_visible_char
FN:424,_RNvMNtNtCscZjyiejqBjN_7gittype4game17display_optimizedNtB2_20GameDisplayOptimized22find_line_for_position
FN:433,_RNvMNtNtCscZjyiejqBjN_7gittype4game17display_optimizedNtB2_20GameDisplayOptimized22is_position_in_comment
FN:275,_RNvMNtNtCscZjyiejqBjN_7gittype4game17display_optimizedNtB2_20GameDisplayOptimized26render_character_optimized
FN:36,_RNvMNtNtCscZjyiejqBjN_7gittype4game17display_optimizedNtB2_20GameDisplayOptimized27display_challenge_with_info
FN:27,_RNvMNtNtCscZjyiejqBjN_7gittype4game17display_optimizedNtB2_20GameDisplayOptimized3new
FNDA:0,_RNCNvMNtNtCs4PyLZvEkasu_7gittype4game17display_optimizedNtB4_20GameDisplayOptimized22is_position_in_comment0B8_
FNDA:0,_RNvMNtNtCs4PyLZvEkasu_7gittype4game17display_optimizedNtB2_20GameDisplayOptimized14display_header
FNDA:0,_RNvMNtNtCs4PyLZvEkasu_7gittype4game17display_optimizedNtB2_20GameDisplayOptimized15display_content
FNDA:0,_RNvMNtNtCs4PyLZvEkasu_7gittype4game17display_optimizedNtB2_20GameDisplayOptimized15display_metrics
FNDA:0,_RNvMNtNtCs4PyLZvEkasu_7gittype4game17display_optimizedNtB2_20GameDisplayOptimized18print_visible_char
FNDA:0,_RNvMNtNtCs4PyLZvEkasu_7gittype4game17display_optimizedNtB2_20GameDisplayOptimized22find_line_for_position
FNDA:0,_RNvMNtNtCs4PyLZvEkasu_7gittype4game17display_optimizedNtB2_20GameDisplayOptimized22is_position_in_comment
FNDA:0,_RNvMNtNtCs4PyLZvEkasu_7gittype4game17display_optimizedNtB2_20GameDisplayOptimized26render_character_optimized
FNDA:0,_RNvMNtNtCs4PyLZvEkasu_7gittype4game17display_optimizedNtB2_20GameDisplayOptimized27display_challenge_with_info
FNDA:0,_RNvMNtNtCs4PyLZvEkasu_7gittype4game17display_optimizedNtB2_20GameDisplayOptimized3new
FNDA:0,_RNCNvMNtNtCscZjyiejqBjN_7gittype4game17display_optimizedNtB4_20GameDisplayOptimized22is_position_in_comment0B8_
FNDA:0,_RNvMNtNtCscZjyiejqBjN_7gittype4game17display_optimizedNtB2_20GameDisplayOptimized14display_header
FNDA:0,_RNvMNtNtCscZjyiejqBjN_7gittype4game17display_optimizedNtB2_20GameDisplayOptimized15display_content
FNDA:0,_RNvMNtNtCscZjyiejqBjN_7gittype4game17display_optimizedNtB2_20GameDisplayOptimized15display_metrics
FNDA:0,_RNvMNtNtCscZjyiejqBjN_7gittype4game17display_optimizedNtB2_20GameDisplayOptimized18print_visible_char
FNDA:0,_RNvMNtNtCscZjyiejqBjN_7gittype4game17display_optimizedNtB2_20GameDisplayOptimized22find_line_for_position
FNDA:0,_RNvMNtNtCscZjyiejqBjN_7gittype4game17display_optimizedNtB2_20GameDisplayOptimized22is_position_in_comment
FNDA:0,_RNvMNtNtCscZjyiejqBjN_7gittype4game17display_optimizedNtB2_20GameDisplayOptimized26render_character_optimized
FNDA:0,_RNvMNtNtCscZjyiejqBjN_7gittype4game17display_optimizedNtB2_20GameDisplayOptimized27display_challenge_with_info
FNDA:0,_RNvMNtNtCscZjyiejqBjN_7gittype4game17display_optimizedNtB2_20GameDisplayOptimized3new
FNF:10
FNH:0
DA:27,0
DA:28,0
DA:29,0
DA:30,0
DA:31,0
DA:32,0
DA:33,0
DA:36,0
DA:37,0
DA:38,0
DA:39,0
DA:40,0
DA:41,0
DA:42,0
DA:43,0
DA:44,0
DA:45,0
DA:46,0
DA:47,0
DA:48,0
DA:49,0
DA:52,0
DA:53,0
DA:54,0
DA:57,0
DA:58,0
DA:61,0
DA:63,0
DA:64,0
DA:65,0
DA:66,0
DA:68,0
DA:71,0
DA:72,0
DA:73,0
DA:74,0
DA:75,0
DA:76,0
DA:77,0
DA:80,0
DA:81,0
DA:85,0
DA:86,0
DA:87,0
DA:89,0
DA:90,0
DA:91,0
DA:92,0
DA:93,0
DA:94,0
DA:95,0
DA:96,0
DA:97,0
DA:98,0
DA:101,0
DA:102,0
DA:103,0
DA:104,0
DA:105,0
DA:106,0
DA:107,0
DA:108,0
DA:109,0
DA:111,0
DA:112,0
DA:114,0
DA:115,0
DA:116,0
DA:118,0
DA:119,0
DA:120,0
DA:121,0
DA:122,0
DA:123,0
DA:124,0
DA:125,0
DA:126,0
DA:127,0
DA:129,0
DA:132,0
DA:133,0
DA:136,0
DA:137,0
DA:138,0
DA:139,0
DA:145,0
DA:147,0
DA:148,0
DA:150,0
DA:153,0
DA:154,0
DA:157,0
DA:158,0
DA:159,0
DA:161,0
DA:163,0
DA:164,0
DA:167,0
DA:168,0
DA:170,0
DA:171,0
DA:174,0
DA:175,0
DA:176,0
DA:177,0
DA:178,0
DA:179,0
DA:180,0
DA:181,0
DA:182,0
DA:183,0
DA:184,0
DA:185,0
DA:186,0
DA:188,0
DA:191,0
DA:192,0
DA:193,0
DA:195,0
DA:199,0
DA:201,0
DA:202,0
DA:203,0
DA:206,0
DA:207,0
DA:208,0
DA:211,0
DA:214,0
DA:217,0
DA:219,0
DA:221,0
DA:222,0
DA:223,0
DA:224,0
DA:225,0
DA:226,0
DA:227,0
DA:230,0
DA:231,0
DA:232,0
DA:233,0
DA:234,0
DA:235,0
DA:236,0
DA:237,0
DA:238,0
DA:239,0
DA:242,0
DA:243,0
DA:244,0
DA:245,0
DA:246,0
DA:247,0
DA:248,0
DA:249,0
DA:252,0
DA:253,0
DA:254,0
DA:257,0
DA:258,0
DA:259,0
DA:260,0
DA:261,0
DA:262,0
DA:263,0
DA:264,0
DA:265,0
DA:266,0
DA:268,0
DA:271,0
DA:272,0
DA:275,0
DA:276,0
DA:277,0
DA:278,0
DA:279,0
DA:280,0
DA:281,0
DA:282,0
DA:283,0
DA:284,0
DA:285,0
DA:287,0
DA:288,0
DA:289,0
DA:290,0
DA:291,0
DA:292,0
DA:293,0
DA:294,0
DA:295,0
DA:296,0
DA:297,0
DA:298,0
DA:299,0
DA:301,0
DA:302,0
DA:303,0
DA:304,0
DA:305,0
DA:307,0
DA:308,0
DA:309,0
DA:310,0
DA:311,0
DA:312,0
DA:313,0
DA:314,0
DA:316,0
DA:317,0
DA:318,0
DA:319,0
DA:320,0
DA:323,0
DA:324,0
DA:325,0
DA:326,0
DA:327,0
DA:329,0
DA:330,0
DA:331,0
DA:332,0
DA:333,0
DA:334,0
DA:336,0
DA:337,0
DA:338,0
DA:339,0
DA:340,0
DA:344,0
DA:345,0
DA:347,0
DA:348,0
DA:349,0
DA:350,0
DA:351,0
DA:352,0
DA:353,0
DA:354,0
DA:355,0
DA:357,0
DA:358,0
DA:360,0
DA:363,0
DA:364,0
DA:365,0
DA:366,0
DA:368,0
DA:369,0
DA:371,0
DA:372,0
DA:373,0
DA:374,0
DA:375,0
DA:376,0
DA:377,0
DA:378,0
DA:379,0
DA:380,0
DA:383,0
DA:384,0
DA:385,0
DA:386,0
DA:387,0
DA:388,0
DA:389,0
DA:390,0
DA:391,0
DA:392,0
DA:393,0
DA:394,0
DA:395,0
DA:396,0
DA:398,0
DA:399,0
DA:401,0
DA:402,0
DA:405,0
DA:406,0
DA:407,0
DA:408,0
DA:409,0
DA:411,0
DA:414,0
DA:419,0
DA:421,0
DA:422,0
DA:424,0
DA:425,0
DA:426,0
DA:427,0
DA:428,0
DA:430,0
DA:431,0
DA:433,0
DA:434,0
DA:435,0
DA:436,0
DA:437,0
BRF:0
BRH:0
LF:300
LH:0
end_of_record
SF:/home/owner/.ghq/github.com/unhappychoice/gittype/src/game/display_ratatui.rs
FN:284,_RNCNvMNtNtCs4PyLZvEkasu_7gittype4game15display_ratatuiNtB4_18GameDisplayRatatui21calculate_should_skip0B8_
FN:371,_RNCNvMNtNtCs4PyLZvEkasu_7gittype4game15display_ratatuiNtB4_18GameDisplayRatatui22is_position_in_comment0B8_
FN:95,_RNCNvMNtNtCs4PyLZvEkasu_7gittype4game15display_ratatuiNtB4_18GameDisplayRatatui27display_challenge_with_info0B8_
FN:385,_RNvMNtNtCs4PyLZvEkasu_7gittype4game15display_ratatuiNtB2_18GameDisplayRatatui13render_dialog
FN:223,_RNvMNtNtCs4PyLZvEkasu_7gittype4game15display_ratatuiNtB2_18GameDisplayRatatui17create_skip_cache
FN:374,_RNvMNtNtCs4PyLZvEkasu_7gittype4game15display_ratatuiNtB2_18GameDisplayRatatui19create_progress_bar
FN:254,_RNvMNtNtCs4PyLZvEkasu_7gittype4game15display_ratatuiNtB2_18GameDisplayRatatui20create_comment_cache
FN:151,_RNvMNtNtCs4PyLZvEkasu_7gittype4game15display_ratatuiNtB2_18GameDisplayRatatui20create_content_spans
FN:264,_RNvMNtNtCs4PyLZvEkasu_7gittype4game15display_ratatuiNtB2_18GameDisplayRatatui21calculate_should_skip
FN:343,_RNvMNtNtCs4PyLZvEkasu_7gittype4game15display_ratatuiNtB2_18GameDisplayRatatui22find_line_for_position
FN:368,_RNvMNtNtCs4PyLZvEkasu_7gittype4game15display_ratatuiNtB2_18GameDisplayRatatui22is_position_in_comment
FN:34,_RNvMNtNtCs4PyLZvEkasu_7gittype4game15display_ratatuiNtB2_18GameDisplayRatatui27display_challenge_with_info
FN:296,_RNvMNtNtCs4PyLZvEkasu_7gittype4game15display_ratatuiNtB2_18GameDisplayRatatui29get_char_style_with_highlight
FN:20,_RNvMNtNtCs4PyLZvEkasu_7gittype4game15display_ratatuiNtB2_18GameDisplayRatatui3new
FN:352,_RNvMNtNtCs4PyLZvEkasu_7gittype4game15display_ratatuiNtB2_18GameDisplayRatatui7cleanup
FN:284,_RNCNvMNtNtCscZjyiejqBjN_7gittype4game15display_ratatuiNtB4_18GameDisplayRatatui21calculate_should_skip0B8_
FN:371,_RNCNvMNtNtCscZjyiejqBjN_7gittype4game15display_ratatuiNtB4_18GameDisplayRatatui22is_position_in_comment0B8_
FN:95,_RNCNvMNtNtCscZjyiejqBjN_7gittype4game15display_ratatuiNtB4_18GameDisplayRatatui27display_challenge_with_info0B8_
FN:385,_RNvMNtNtCscZjyiejqBjN_7gittype4game15display_ratatuiNtB2_18GameDisplayRatatui13render_dialog
FN:223,_RNvMNtNtCscZjyiejqBjN_7gittype4game15display_ratatuiNtB2_18GameDisplayRatatui17create_skip_cache
FN:374,_RNvMNtNtCscZjyiejqBjN_7gittype4game15display_ratatuiNtB2_18GameDisplayRatatui19create_progress_bar
FN:254,_RNvMNtNtCscZjyiejqBjN_7gittype4game15display_ratatuiNtB2_18GameDisplayRatatui20create_comment_cache
FN:151,_RNvMNtNtCscZjyiejqBjN_7gittype4game15display_ratatuiNtB2_18GameDisplayRatatui20create_content_spans
FN:264,_RNvMNtNtCscZjyiejqBjN_7gittype4game15display_ratatuiNtB2_18GameDisplayRatatui21calculate_should_skip
FN:343,_RNvMNtNtCscZjyiejqBjN_7gittype4game15display_ratatuiNtB2_18GameDisplayRatatui22find_line_for_position
FN:368,_RNvMNtNtCscZjyiejqBjN_7gittype4game15display_ratatuiNtB2_18GameDisplayRatatui22is_position_in_comment
FN:34,_RNvMNtNtCscZjyiejqBjN_7gittype4game15display_ratatuiNtB2_18GameDisplayRatatui27display_challenge_with_info
FN:296,_RNvMNtNtCscZjyiejqBjN_7gittype4game15display_ratatuiNtB2_18GameDisplayRatatui29get_char_style_with_highlight
FN:20,_RNvMNtNtCscZjyiejqBjN_7gittype4game15display_ratatuiNtB2_18GameDisplayRatatui3new
FN:352,_RNvMNtNtCscZjyiejqBjN_7gittype4game15display_ratatuiNtB2_18GameDisplayRatatui7cleanup
FNDA:0,_RNCNvMNtNtCs4PyLZvEkasu_7gittype4game15display_ratatuiNtB4_18GameDisplayRatatui21calculate_should_skip0B8_
FNDA:0,_RNCNvMNtNtCs4PyLZvEkasu_7gittype4game15display_ratatuiNtB4_18GameDisplayRatatui22is_position_in_comment0B8_
FNDA:0,_RNCNvMNtNtCs4PyLZvEkasu_7gittype4game15display_ratatuiNtB4_18GameDisplayRatatui27display_challenge_with_info0B8_
FNDA:0,_RNvMNtNtCs4PyLZvEkasu_7gittype4game15display_ratatuiNtB2_18GameDisplayRatatui13render_dialog
FNDA:0,_RNvMNtNtCs4PyLZvEkasu_7gittype4game15display_ratatuiNtB2_18GameDisplayRatatui17create_skip_cache
FNDA:0,_RNvMNtNtCs4PyLZvEkasu_7gittype4game15display_ratatuiNtB2_18GameDisplayRatatui19create_progress_bar
FNDA:0,_RNvMNtNtCs4PyLZvEkasu_7gittype4game15display_ratatuiNtB2_18GameDisplayRatatui20create_comment_cache
FNDA:0,_RNvMNtNtCs4PyLZvEkasu_7gittype4game15display_ratatuiNtB2_18GameDisplayRatatui20create_content_spans
FNDA:0,_RNvMNtNtCs4PyLZvEkasu_7gittype4game15display_ratatuiNtB2_18GameDisplayRatatui21calculate_should_skip
FNDA:0,_RNvMNtNtCs4PyLZvEkasu_7gittype4game15display_ratatuiNtB2_18GameDisplayRatatui22find_line_for_position
FNDA:0,_RNvMNtNtCs4PyLZvEkasu_7gittype4game15display_ratatuiNtB2_18GameDisplayRatatui22is_position_in_comment
FNDA:0,_RNvMNtNtCs4PyLZvEkasu_7gittype4game15display_ratatuiNtB2_18GameDisplayRatatui27display_challenge_with_info
FNDA:0,_RNvMNtNtCs4PyLZvEkasu_7gittype4game15display_ratatuiNtB2_18GameDisplayRatatui29get_char_style_with_highlight
FNDA:0,_RNvMNtNtCs4PyLZvEkasu_7gittype4game15display_ratatuiNtB2_18GameDisplayRatatui3new
FNDA:0,_RNvMNtNtCs4PyLZvEkasu_7gittype4game15display_ratatuiNtB2_18GameDisplayRatatui7cleanup
FNDA:0,_RNCNvMNtNtCscZjyiejqBjN_7gittype4game15display_ratatuiNtB4_18GameDisplayRatatui21calculate_should_skip0B8_
FNDA:0,_RNCNvMNtNtCscZjyiejqBjN_7gittype4game15display_ratatuiNtB4_18GameDisplayRatatui22is_position_in_comment0B8_
FNDA:0,_RNCNvMNtNtCscZjyiejqBjN_7gittype4game15display_ratatuiNtB4_18GameDisplayRatatui27display_challenge_with_info0B8_
FNDA:0,_RNvMNtNtCscZjyiejqBjN_7gittype4game15display_ratatuiNtB2_18GameDisplayRatatui13render_dialog
FNDA:0,_RNvMNtNtCscZjyiejqBjN_7gittype4game15display_ratatuiNtB2_18GameDisplayRatatui17create_skip_cache
FNDA:0,_RNvMNtNtCscZjyiejqBjN_7gittype4game15display_ratatuiNtB2_18GameDisplayRatatui19create_progress_bar
FNDA:0,_RNvMNtNtCscZjyiejqBjN_7gittype4game15display_ratatuiNtB2_18GameDisplayRatatui20create_comment_cache
FNDA:0,_RNvMNtNtCscZjyiejqBjN_7gittype4game15display_ratatuiNtB2_18GameDisplayRatatui20create_content_spans
FNDA:0,_RNvMNtNtCscZjyiejqBjN_7gittype4game15display_ratatuiNtB2_18GameDisplayRatatui21calculate_should_skip
FNDA:0,_RNvMNtNtCscZjyiejqBjN_7gittype4game15display_ratatuiNtB2_18GameDisplayRatatui22find_line_for_position
FNDA:0,_RNvMNtNtCscZjyiejqBjN_7gittype4game15display_ratatuiNtB2_18GameDisplayRatatui22is_position_in_comment
FNDA:0,_RNvMNtNtCscZjyiejqBjN_7gittype4game15display_ratatuiNtB2_18GameDisplayRatatui27display_challenge_with_info
FNDA:0,_RNvMNtNtCscZjyiejqBjN_7gittype4game15display_ratatuiNtB2_18GameDisplayRatatui29get_char_style_with_highlight
FNDA:0,_RNvMNtNtCscZjyiejqBjN_7gittype4game15display_ratatuiNtB2_18GameDisplayRatatui3new
FNDA:0,_RNvMNtNtCscZjyiejqBjN_7gittype4game15display_ratatuiNtB2_18GameDisplayRatatui7cleanup
FNF:15
FNH:0
DA:20,0
DA:21,0
DA:22,0
DA:23,0
DA:24,0
DA:26,0
DA:27,0
DA:28,0
DA:29,0
DA:30,0
DA:31,0
DA:34,0
DA:35,0
DA:36,0
DA:37,0
DA:38,0
DA:39,0
DA:40,0
DA:41,0
DA:42,0
DA:43,0
DA:44,0
DA:45,0
DA:46,0
DA:47,0
DA:49,0
DA:50,0
DA:51,0
DA:54,0
DA:55,0
DA:57,0
DA:60,0
DA:61,0
DA:62,0
DA:63,0
DA:65,0
DA:67,0
DA:70,0
DA:71,0
DA:72,0
DA:73,0
DA:74,0
DA:75,0
DA:76,0
DA:79,0
DA:80,0
DA:81,0
DA:82,0
DA:84,0
DA:85,0
DA:87,0
DA:88,0
DA:89,0
DA:93,0
DA:95,0
DA:96,0
DA:97,0
DA:98,0
DA:99,0
DA:100,0
DA:101,0
DA:102,0
DA:103,0
DA:104,0
DA:105,0
DA:106,0
DA:109,0
DA:110,0
DA:111,0
DA:112,0
DA:113,0
DA:115,0
DA:116,0
DA:117,0
DA:120,0
DA:121,0
DA:124,0
DA:125,0
DA:127,0
DA:130,0
DA:131,0
DA:132,0
DA:135,0
DA:136,0
DA:137,0
DA:138,0
DA:139,0
DA:142,0
DA:143,0
DA:144,0
DA:145,0
DA:147,0
DA:148,0
DA:149,0
DA:151,0
DA:152,0
DA:153,0
DA:154,0
DA:155,0
DA:156,0
DA:157,0
DA:158,0
DA:159,0
DA:160,0
DA:161,0
DA:162,0
DA:165,0
DA:166,0
DA:167,0
DA:169,0
DA:171,0
DA:173,0
DA:174,0
DA:175,0
DA:176,0
DA:177,0
DA:178,0
DA:179,0
DA:182,0
DA:183,0
DA:184,0
DA:186,0
DA:187,0
DA:188,0
DA:189,0
DA:190,0
DA:191,0
DA:192,0
DA:195,0
DA:196,0
DA:197,0
DA:198,0
DA:202,0
DA:203,0
DA:204,0
DA:205,0
DA:206,0
DA:208,0
DA:209,0
DA:212,0
DA:213,0
DA:214,0
DA:216,0
DA:217,0
DA:218,0
DA:220,0
DA:221,0
DA:223,0
DA:224,0
DA:225,0
DA:226,0
DA:227,0
DA:228,0
DA:229,0
DA:232,0
DA:233,0
DA:234,0
DA:235,0
DA:238,0
DA:239,0
DA:240,0
DA:241,0
DA:242,0
DA:244,0
DA:245,0
DA:246,0
DA:247,0
DA:248,0
DA:249,0
DA:251,0
DA:252,0
DA:254,0
DA:255,0
DA:257,0
DA:258,0
DA:259,0
DA:261,0
DA:262,0
DA:264,0
DA:265,0
DA:266,0
DA:267,0
DA:268,0
DA:269,0
DA:270,0
DA:271,0
DA:272,0
DA:273,0
DA:275,0
DA:278,0
DA:279,0
DA:280,0
DA:284,0
DA:285,0
DA:286,0
DA:287,0
DA:288,0
DA:289,0
DA:290,0
DA:293,0
DA:294,0
DA:296,0
DA:297,0
DA:298,0
DA:299,0
DA:300,0
DA:301,0
DA:302,0
DA:303,0
DA:304,0
DA:305,0
DA:306,0
DA:307,0
DA:308,0
DA:309,0
DA:310,0
DA:311,0
DA:313,0
DA:314,0
DA:315,0
DA:317,0
DA:318,0
DA:319,0
DA:320,0
DA:322,0
DA:325,0
DA:327,0
DA:328,0
DA:330,0
DA:331,0
DA:332,0
DA:336,0
DA:337,0
DA:338,0
DA:340,0
DA:341,0
DA:343,0
DA:344,0
DA:345,0
DA:346,0
DA:347,0
DA:349,0
DA:350,0
DA:352,0
DA:356,0
DA:359,0
DA:360,0
DA:361,0
DA:362,0
DA:363,0
DA:365,0
DA:366,0
DA:368,0
DA:369,0
DA:370,0
DA:371,0
DA:372,0
DA:374,0
DA:375,0
DA:376,0
DA:378,0
DA:379,0
DA:380,0
DA:381,0
DA:383,0
DA:385,0
DA:389,0
DA:390,0
DA:391,0
DA:393,0
DA:394,0
DA:395,0
DA:396,0
DA:397,0
DA:398,0
DA:401,0
DA:404,0
DA:405,0
DA:406,0
DA:408,0
DA:409,0
DA:410,0
DA:412,0
DA:413,0
DA:414,0
DA:415,0
DA:417,0
DA:418,0
DA:419,0
DA:422,0
DA:424,0
DA:425,0
DA:426,0
DA:429,0
DA:430,0
DA:431,0
DA:432,0
DA:435,0
DA:437,0
DA:438,0
DA:439,0
DA:443,0
DA:444,0
DA:446,0
DA:448,0
DA:450,0
DA:451,0
DA:453,0
DA:454,0
DA:455,0
DA:457,0
DA:459,0
DA:462,0
DA:463,0
DA:464,0
DA:465,0
DA:466,0
DA:467,0
DA:468,0
DA:469,0
DA:470,0
DA:472,0
DA:474,0
DA:476,0
DA:477,0
BRF:0
BRH:0
LF:329
LH:0
end_of_record
SF:/home/owner/.ghq/github.com/unhappychoice/gittype/src/game/rank_messages.rs
FN:16,_RNCNvNtNtCs4PyLZvEkasu_7gittype4game13rank_messages17get_rank_messages0B7_
FN:321,_RNCNvNtNtCs4PyLZvEkasu_7gittype4game13rank_messages19get_rank_messages_20B7_
FN:547,_RNCNvNtNtCs4PyLZvEkasu_7gittype4game13rank_messages19get_rank_messages_30B7_
FN:998,_RNCNvNtNtCs4PyLZvEkasu_7gittype4game13rank_messages29get_colored_messages_for_rank0B7_
FN:1018,_RNCNvNtNtCs4PyLZvEkasu_7gittype4game13rank_messages29get_colored_messages_for_ranks0_0B7_
FN:1008,_RNCNvNtNtCs4PyLZvEkasu_7gittype4game13rank_messages29get_colored_messages_for_ranks_0B7_
FN:971,_RNCNvNtNtCs4PyLZvEkasu_7gittype4game13rank_messages29get_hacking_messages_for_rank0B7_
FN:979,_RNCNvNtNtCs4PyLZvEkasu_7gittype4game13rank_messages29get_hacking_messages_for_ranks0_0B7_
FN:975,_RNCNvNtNtCs4PyLZvEkasu_7gittype4game13rank_messages29get_hacking_messages_for_ranks_0B7_
FN:15,_RNvNtNtCs4PyLZvEkasu_7gittype4game13rank_messages17get_rank_messages
FN:320,_RNvNtNtCs4PyLZvEkasu_7gittype4game13rank_messages19get_rank_messages_2
FN:546,_RNvNtNtCs4PyLZvEkasu_7gittype4game13rank_messages19get_rank_messages_3
FN:992,_RNvNtNtCs4PyLZvEkasu_7gittype4game13rank_messages29get_colored_messages_for_rank
FN:968,_RNvNtNtCs4PyLZvEkasu_7gittype4game13rank_messages29get_hacking_messages_for_rank
FN:16,_RNCNvNtNtCscZjyiejqBjN_7gittype4game13rank_messages17get_rank_messages0B7_
FN:321,_RNCNvNtNtCscZjyiejqBjN_7gittype4game13rank_messages19get_rank_messages_20B7_
FN:547,_RNCNvNtNtCscZjyiejqBjN_7gittype4game13rank_messages19get_rank_messages_30B7_
FN:998,_RNCNvNtNtCscZjyiejqBjN_7gittype4game13rank_messages29get_colored_messages_for_rank0B7_
FN:1018,_RNCNvNtNtCscZjyiejqBjN_7gittype4game13rank_messages29get_colored_messages_for_ranks0_0B7_
FN:1008,_RNCNvNtNtCscZjyiejqBjN_7gittype4game13rank_messages29get_colored_messages_for_ranks_0B7_
FN:971,_RNCNvNtNtCscZjyiejqBjN_7gittype4game13rank_messages29get_hacking_messages_for_rank0B7_
FN:979,_RNCNvNtNtCscZjyiejqBjN_7gittype4game13rank_messages29get_hacking_messages_for_ranks0_0B7_
FN:975,_RNCNvNtNtCscZjyiejqBjN_7gittype4game13rank_messages29get_hacking_messages_for_ranks_0B7_
FN:15,_RNvNtNtCscZjyiejqBjN_7gittype4game13rank_messages17get_rank_messages
FN:320,_RNvNtNtCscZjyiejqBjN_7gittype4game13rank_messages19get_rank_messages_2
FN:546,_RNvNtNtCscZjyiejqBjN_7gittype4game13rank_messages19get_rank_messages_3
FN:992,_RNvNtNtCscZjyiejqBjN_7gittype4game13rank_messages29get_colored_messages_for_rank
FN:968,_RNvNtNtCscZjyiejqBjN_7gittype4game13rank_messages29get_hacking_messages_for_rank
FNDA:0,_RNCNvNtNtCs4PyLZvEkasu_7gittype4game13rank_messages17get_rank_messages0B7_
FNDA:0,_RNCNvNtNtCs4PyLZvEkasu_7gittype4game13rank_messages19get_rank_messages_20B7_
FNDA:0,_RNCNvNtNtCs4PyLZvEkasu_7gittype4game13rank_messages19get_rank_messages_30B7_
FNDA:0,_RNCNvNtNtCs4PyLZvEkasu_7gittype4game13rank_messages29get_colored_messages_for_rank0B7_
FNDA:0,_RNCNvNtNtCs4PyLZvEkasu_7gittype4game13rank_messages29get_colored_messages_for_ranks0_0B7_
FNDA:0,_RNCNvNtNtCs4PyLZvEkasu_7gittype4game13rank_messages29get_colored_messages_for_ranks_0B7_
FNDA:0,_RNCNvNtNtCs4PyLZvEkasu_7gittype4game13rank_messages29get_hacking_messages_for_rank0B7_
FNDA:0,_RNCNvNtNtCs4PyLZvEkasu_7gittype4game13rank_messages29get_hacking_messages_for_ranks0_0B7_
FNDA:0,_RNCNvNtNtCs4PyLZvEkasu_7gittype4game13rank_messages29get_hacking_messages_for_ranks_0B7_
FNDA:0,_RNvNtNtCs4PyLZvEkasu_7gittype4game13rank_messages17get_rank_messages
FNDA:0,_RNvNtNtCs4PyLZvEkasu_7gittype4game13rank_messages19get_rank_messages_2
FNDA:0,_RNvNtNtCs4PyLZvEkasu_7gittype4game13rank_messages19get_rank_messages_3
FNDA:0,_RNvNtNtCs4PyLZvEkasu_7gittype4game13rank_messages29get_colored_messages_for_rank
FNDA:0,_RNvNtNtCs4PyLZvEkasu_7gittype4game13rank_messages29get_hacking_messages_for_rank
FNDA:0,_RNCNvNtNtCscZjyiejqBjN_7gittype4game13rank_messages17get_rank_messages0B7_
FNDA:0,_RNCNvNtNtCscZjyiejqBjN_7gittype4game13rank_messages19get_rank_messages_20B7_
FNDA:0,_RNCNvNtNtCscZjyiejqBjN_7gittype4game13rank_messages19get_rank_messages_30B7_
FNDA:0,_RNCNvNtNtCscZjyiejqBjN_7gittype4game13rank_messages29get_colored_messages_for_rank0B7_
FNDA:0,_RNCNvNtNtCscZjyiejqBjN_7gittype4game13rank_messages29get_colored_messages_for_ranks0_0B7_
FNDA:0,_RNCNvNtNtCscZjyiejqBjN_7gittype4game13rank_messages29get_colored_messages_for_ranks_0B7_
FNDA:0,_RNCNvNtNtCscZjyiejqBjN_7gittype4game13rank_messages29get_hacking_messages_for_rank0B7_
FNDA:0,_RNCNvNtNtCscZjyiejqBjN_7gittype4game13rank_messages29get_hacking_messages_for_ranks0_0B7_
FNDA:0,_RNCNvNtNtCscZjyiejqBjN_7gittype4game13rank_messages29get_hacking_messages_for_ranks_0B7_
FNDA:0,_RNvNtNtCscZjyiejqBjN_7gittype4game13rank_messages17get_rank_messages
FNDA:0,_RNvNtNtCscZjyiejqBjN_7gittype4game13rank_messages19get_rank_messages_2
FNDA:0,_RNvNtNtCscZjyiejqBjN_7gittype4game13rank_messages19get_rank_messages_3
FNDA:0,_RNvNtNtCscZjyiejqBjN_7gittype4game13rank_messages29get_colored_messages_for_rank
FNDA:0,_RNvNtNtCscZjyiejqBjN_7gittype4game13rank_messages29get_hacking_messages_for_rank
FNF:14
FNH:0
DA:15,0
DA:16,0
DA:17,0
DA:20,0
DA:22,0
DA:23,0
DA:24,0
DA:25,0
DA:26,0
DA:27,0
DA:28,0
DA:29,0
DA:30,0
DA:31,0
DA:32,0
DA:36,0
DA:37,0
DA:38,0
DA:39,0
DA:40,0
DA:41,0
DA:42,0
DA:43,0
DA:44,0
DA:45,0
DA:49,0
DA:50,0
DA:51,0
DA:52,0
DA:53,0
DA:54,0
DA:55,0
DA:59,0
DA:60,0
DA:61,0
DA:62,0
DA:63,0
DA:64,0
DA:65,0
DA:66,0
DA:67,0
DA:68,0
DA:69,0
DA:70,0
DA:71,0
DA:72,0
DA:73,0
DA:74,0
DA:78,0
DA:79,0
DA:80,0
DA:81,0
DA:82,0
DA:83,0
DA:84,0
DA:85,0
DA:86,0
DA:87,0
DA:88,0
DA:89,0
DA:90,0
DA:91,0
DA:92,0
DA:93,0
DA:97,0
DA:98,0
DA:99,0
DA:100,0
DA:101,0
DA:102,0
DA:103,0
DA:104,0
DA:105,0
DA:106,0
DA:107,0
DA:108,0
DA:109,0
DA:113,0
DA:114,0
DA:115,0
DA:116,0
DA:117,0
DA:118,0
DA:119,0
DA:120,0
DA:121,0
DA:122,0
DA:126,0
DA:127,0
DA:128,0
DA:129,0
DA:130,0
DA:131,0
DA:132,0
DA:133,0
DA:134,0
DA:135,0
DA:139,0
DA:140,0
DA:141,0
DA:142,0
DA:143,0
DA:144,0
DA:145,0
DA:149,0
DA:150,0
DA:151,0
DA:152,0
DA:153,0
DA:154,0
DA:155,0
DA:156,0
DA:157,0
DA:158,0
DA:159,0
DA:160,0
DA:161,0
DA:165,0
DA:166,0
DA:167,0
DA:168,0
DA:169,0
DA:170,0
DA:171,0
DA:172,0
DA:173,0
DA:174,0
DA:178,0
DA:179,0
DA:180,0
DA:181,0
DA:182,0
DA:183,0
DA:184,0
DA:185,0
DA:186,0
DA:187,0
DA:192,0
DA:193,0
DA:194,0
DA:195,0
DA:196,0
DA:197,0
DA:198,0
DA:202,0
DA:203,0
DA:204,0
DA:205,0
DA:206,0
DA:207,0
DA:208,0
DA:212,0
DA:213,0
DA:214,0
DA:215,0
DA:216,0
DA:217,0
DA:218,0
DA:222,0
DA:223,0
DA:224,0
DA:225,0
DA:226,0
DA:227,0
DA:228,0
DA:232,0
DA:233,0
DA:234,0
DA:235,0
DA:236,0
DA:237,0
DA:238,0
DA:242,0
DA:243,0
DA:244,0
DA:245,0
DA:246,0
DA:247,0
DA:248,0
DA:252,0
DA:253,0
DA:254,0
DA:255,0
DA:256,0
DA:257,0
DA:258,0
DA:262,0
DA:263,0
DA:264,0
DA:265,0
DA:266,0
DA:267,0
DA:268,0
DA:272,0
DA:273,0
DA:274,0
DA:275,0
DA:276,0
DA:277,0
DA:278,0
DA:282,0
DA:283,0
DA:284,0
DA:285,0
DA:286,0
DA:287,0
DA:288,0
DA:292,0
DA:293,0
DA:294,0
DA:295,0
DA:296,0
DA:297,0
DA:298,0
DA:302,0
DA:303,0
DA:304,0
DA:305,0
DA:306,0
DA:307,0
DA:308,0
DA:312,0
DA:313,0
DA:314,0
DA:320,0
DA:321,0
DA:322,0
DA:325,0
DA:327,0
DA:328,0
DA:329,0
DA:330,0
DA:331,0
DA:332,0
DA:333,0
DA:334,0
DA:335,0
DA:336,0
DA:337,0
DA:338,0
DA:339,0
DA:340,0
DA:344,0
DA:345,0
DA:346,0
DA:347,0
DA:348,0
DA:349,0
DA:350,0
DA:351,0
DA:352,0
DA:353,0
DA:354,0
DA:355,0
DA:356,0
DA:357,0
DA:358,0
DA:359,0
DA:360,0
DA:361,0
DA:362,0
DA:366,0
DA:367,0
DA:368,0
DA:369,0
DA:370,0
DA:371,0
DA:372,0
DA:373,0
DA:374,0
DA:375,0
DA:376,0
DA:377,0
DA:378,0
DA:379,0
DA:380,0
DA:381,0
DA:382,0
DA:383,0
DA:384,0
DA:388,0
DA:389,0
DA:390,0
DA:391,0
DA:392,0
DA:393,0
DA:394,0
DA:395,0
DA:396,0
DA:397,0
DA:398,0
DA:399,0
DA:400,0
DA:404,0
DA:405,0
DA:406,0
DA:407,0
DA:408,0
DA:409,0
DA:410,0
DA:411,0
DA:412,0
DA:413,0
DA:414,0
DA:415,0
DA:416,0
DA:420,0
DA:421,0
DA:422,0
DA:423,0
DA:424,0
DA:425,0
DA:426,0
DA:427,0
DA:428,0
DA:429,0
DA:433,0
DA:434,0
DA:435,0
DA:436,0
DA:437,0
DA:438,0
DA:439,0
DA:440,0
DA:441,0
DA:442,0
DA:443,0
DA:444,0
DA:445,0
DA:449,0
DA:450,0
DA:451,0
DA:452,0
DA:453,0
DA:454,0
DA:455,0
DA:456,0
DA:457,0
DA:458,0
DA:459,0
DA:460,0
DA:461,0
DA:465,0
DA:466,0
DA:467,0
DA:468,0
DA:469,0
DA:470,0
DA:471,0
DA:472,0
DA:473,0
DA:474,0
DA:475,0
DA:476,0
DA:477,0
DA:478,0
DA:479,0
DA:480,0
DA:481,0
DA:482,0
DA:483,0
DA:487,0
DA:488,0
DA:489,0
DA:490,0
DA:491,0
DA:492,0
DA:493,0
DA:494,0
DA:495,0
DA:496,0
DA:497,0
DA:498,0
DA:499,0
DA:500,0
DA:501,0
DA:502,0
DA:506,0
DA:507,0
DA:508,0
DA:509,0
DA:510,0
DA:511,0
DA:512,0
DA:513,0
DA:514,0
DA:515,0
DA:516,0
DA:517,0
DA:518,0
DA:522,0
DA:523,0
DA:524,0
DA:525,0
DA:526,0
DA:527,0
DA:528,0
DA:529,0
DA:530,0
DA:531,0
DA:532,0
DA:533,0
DA:534,0
DA:538,0
DA:539,0
DA:540,0
DA:546,0
DA:547,0
DA:548,0
DA:551,0
DA:553,0
DA:554,0
DA:555,0
DA:556,0
DA:557,0
DA:558,0
DA:559,0
DA:560,0
DA:561,0
DA:562,0
DA:563,0
DA:567,0
DA:568,0
DA:569,0
DA:570,0
DA:571,0
DA:572,0
DA:573,0
DA:574,0
DA:575,0
DA:576,0
DA:577,0
DA:578,0
DA:579,0
DA:580,0
DA:581,0
DA:582,0
DA:583,0
DA:584,0
DA:585,0
DA:589,0
DA:590,0
DA:591,0
DA:592,0
DA:593,0
DA:594,0
DA:595,0
DA:596,0
DA:597,0
DA:598,0
DA:599,0
DA:600,0
DA:601,0
DA:605,0
DA:606,0
DA:607,0
DA:608,0
DA:609,0
DA:610,0
DA:611,0
DA:612,0
DA:613,0
DA:614,0
DA:615,0
DA:616,0
DA:617,0
DA:618,0
DA:619,0
DA:620,0
DA:624,0
DA:625,0
DA:626,0
DA:627,0
DA:628,0
DA:629,0
DA:630,0
DA:631,0
DA:632,0
DA:633,0
DA:634,0
DA:635,0
DA:636,0
DA:637,0
DA:638,0
DA:639,0
DA:643,0
DA:644,0
DA:645,0
DA:646,0
DA:647,0
DA:648,0
DA:649,0
DA:650,0
DA:651,0
DA:652,0
DA:653,0
DA:654,0
DA:655,0
DA:659,0
DA:660,0
DA:661,0
DA:662,0
DA:663,0
DA:664,0
DA:665,0
DA:666,0
DA:667,0
DA:668,0
DA:669,0
DA:670,0
DA:671,0
DA:672,0
DA:673,0
DA:674,0
DA:678,0
DA:679,0
DA:680,0
DA:681,0
DA:682,0
DA:683,0
DA:684,0
DA:685,0
DA:686,0
DA:687,0
DA:688,0
DA:689,0
DA:690,0
DA:691,0
DA:692,0
DA:693,0
DA:697,0
DA:698,0
DA:699,0
DA:700,0
DA:701,0
DA:702,0
DA:703,0
DA:704,0
DA:705,0
DA:706,0
DA:707,0
DA:708,0
DA:709,0
DA:713,0
DA:714,0
DA:715,0
DA:716,0
DA:717,0
DA:718,0
DA:719,0
DA:720,0
DA:721,0
DA:722,0
DA:723,0
DA:724,0
DA:725,0
DA:726,0
DA:727,0
DA:728,0
DA:729,0
DA:730,0
DA:731,0
DA:735,0
DA:736,0
DA:737,0
DA:738,0
DA:739,0
DA:740,0
DA:741,0
DA:742,0
DA:743,0
DA:744,0
DA:745,0
DA:746,0
DA:747,0
DA:748,0
DA:749,0
DA:750,0
DA:751,0
DA:752,0
DA:753,0
DA:757,0
DA:758,0
DA:759,0
DA:760,0
DA:761,0
DA:762,0
DA:763,0
DA:764,0
DA:765,0
DA:766,0
DA:767,0
DA:768,0
DA:769,0
DA:770,0
DA:771,0
DA:772,0
DA:773,0
DA:774,0
DA:775,0
DA:780,0
DA:781,0
DA:782,0
DA:783,0
DA:784,0
DA:785,0
DA:786,0
DA:790,0
DA:791,0
DA:792,0
DA:793,0
DA:794,0
DA:795,0
DA:796,0
DA:800,0
DA:801,0
DA:802,0
DA:803,0
DA:804,0
DA:805,0
DA:806,0
DA:810,0
DA:811,0
DA:812,0
DA:813,0
DA:814,0
DA:815,0
DA:816,0
DA:820,0
DA:821,0
DA:822,0
DA:823,0
DA:824,0
DA:825,0
DA:826,0
DA:830,0
DA:831,0
DA:832,0
DA:833,0
DA:834,0
DA:835,0
DA:836,0
DA:840,0
DA:841,0
DA:842,0
DA:843,0
DA:844,0
DA:845,0
DA:846,0
DA:850,0
DA:851,0
DA:852,0
DA:853,0
DA:854,0
DA:855,0
DA:856,0
DA:857,0
DA:858,0
DA:859,0
DA:863,0
DA:864,0
DA:865,0
DA:866,0
DA:867,0
DA:868,0
DA:869,0
DA:873,0
DA:874,0
DA:875,0
DA:876,0
DA:877,0
DA:878,0
DA:879,0
DA:880,0
DA:881,0
DA:882,0
DA:883,0
DA:884,0
DA:885,0
DA:889,0
DA:890,0
DA:891,0
DA:892,0
DA:893,0
DA:894,0
DA:895,0
DA:899,0
DA:900,0
DA:901,0
DA:902,0
DA:903,0
DA:904,0
DA:905,0
DA:906,0
DA:907,0
DA:908,0
DA:909,0
DA:910,0
DA:911,0
DA:912,0
DA:913,0
DA:914,0
DA:918,0
DA:919,0
DA:920,0
DA:921,0
DA:922,0
DA:923,0
DA:924,0
DA:925,0
DA:926,0
DA:927,0
DA:928,0
DA:929,0
DA:930,0
DA:934,0
DA:935,0
DA:936,0
DA:937,0
DA:938,0
DA:939,0
DA:940,0
DA:941,0
DA:942,0
DA:943,0
DA:947,0
DA:948,0
DA:949,0
DA:950,0
DA:951,0
DA:952,0
DA:953,0
DA:954,0
DA:955,0
DA:956,0
DA:957,0
DA:958,0
DA:959,0
DA:963,0
DA:964,0
DA:965,0
DA:968,0
DA:970,0
DA:971,0
DA:972,0
DA:974,0
DA:975,0
DA:976,0
DA:978,0
DA:979,0
DA:980,0
DA:983,0
DA:984,0
DA:985,0
DA:986,0
DA:987,0
DA:989,0
DA:992,0
DA:994,0
DA:995,0
DA:996,0
DA:997,0
DA:998,0
DA:999,0
DA:1000,0
DA:1001,0
DA:1002,0
DA:1004,0
DA:1005,0
DA:1006,0
DA:1007,0
DA:1008,0
DA:1009,0
DA:1010,0
DA:1011,0
DA:1012,0
DA:1014,0
DA:1015,0
DA:1016,0
DA:1017,0
DA:1018,0
DA:1019,0
DA:1020,0
DA:1021,0
DA:1022,0
DA:1025,0
DA:1026,0
DA:1027,0
DA:1028,0
DA:1029,0
DA:1030,0
DA:1031,0
DA:1032,0
DA:1033,0
DA:1034,0
DA:1035,0
DA:1036,0
DA:1037,0
DA:1038,0
DA:1039,0
DA:1040,0
DA:1041,0
DA:1043,0
BRF:0
BRH:0
LF:809
LH:0
end_of_record
SF:/home/owner/.ghq/github.com/unhappychoice/gittype/src/game/screens/animation_screen.rs
FN:154,_RNCNvMNtNtNtCs4PyLZvEkasu_7gittype4game7screens16animation_screenNtB4_15AnimationScreen19get_tier_from_title0Ba_
FN:155,_RNCNvMNtNtNtCs4PyLZvEkasu_7gittype4game7screens16animation_screenNtB4_15AnimationScreen19get_tier_from_titles_0Ba_
FN:171,_RNCNvMNtNtNtCs4PyLZvEkasu_7gittype4game7screens16animation_screenNtB4_15AnimationScreen22show_session_animation0Ba_
FN:200,_RNCNvMNtNtNtCs4PyLZvEkasu_7gittype4game7screens16animation_screenNtB4_15AnimationScreen22show_session_animations0_0Ba_
FN:172,_RNCNvMNtNtNtCs4PyLZvEkasu_7gittype4game7screens16animation_screenNtB4_15AnimationScreen22show_session_animations_0Ba_
FN:128,_RNvMNtNtNtCs4PyLZvEkasu_7gittype4game7screens16animation_screenNtB2_15AnimationScreen16render_skip_hint
FN:151,_RNvMNtNtNtCs4PyLZvEkasu_7gittype4game7screens16animation_screenNtB2_15AnimationScreen19get_tier_from_title
FN:159,_RNvMNtNtNtCs4PyLZvEkasu_7gittype4game7screens16animation_screenNtB2_15AnimationScreen22show_session_animation
FN:19,_RNvMNtNtNtCs4PyLZvEkasu_7gittype4game7screens16animation_screenNtB2_15AnimationScreen23convert_crossterm_color
FN:42,_RNvMNtNtNtCs4PyLZvEkasu_7gittype4game7screens16animation_screenNtB2_15AnimationScreen31render_typing_animation_ratatui
FN:154,_RNCNvMNtNtNtCscZjyiejqBjN_7gittype4game7screens16animation_screenNtB4_15AnimationScreen19get_tier_from_title0Ba_
FN:155,_RNCNvMNtNtNtCscZjyiejqBjN_7gittype4game7screens16animation_screenNtB4_15AnimationScreen19get_tier_from_titles_0Ba_
FN:171,_RNCNvMNtNtNtCscZjyiejqBjN_7gittype4game7screens16animation_screenNtB4_15AnimationScreen22show_session_animation0Ba_
FN:200,_RNCNvMNtNtNtCscZjyiejqBjN_7gittype4game7screens16animation_screenNtB4_15AnimationScreen22show_session_animations0_0Ba_
FN:172,_RNCNvMNtNtNtCscZjyiejqBjN_7gittype4game7screens16animation_screenNtB4_15AnimationScreen22show_session_animations_0Ba_
FN:128,_RNvMNtNtNtCscZjyiejqBjN_7gittype4game7screens16animation_screenNtB2_15AnimationScreen16render_skip_hint
FN:151,_RNvMNtNtNtCscZjyiejqBjN_7gittype4game7screens16animation_screenNtB2_15AnimationScreen19get_tier_from_title
FN:159,_RNvMNtNtNtCscZjyiejqBjN_7gittype4game7screens16animation_screenNtB2_15AnimationScreen22show_session_animation
FN:19,_RNvMNtNtNtCscZjyiejqBjN_7gittype4game7screens16animation_screenNtB2_15AnimationScreen23convert_crossterm_color
FN:42,_RNvMNtNtNtCscZjyiejqBjN_7gittype4game7screens16animation_screenNtB2_15AnimationScreen31render_typing_animation_ratatui
FNDA:0,_RNCNvMNtNtNtCs4PyLZvEkasu_7gittype4game7screens16animation_screenNtB4_15AnimationScreen19get_tier_from_title0Ba_
FNDA:0,_RNCNvMNtNtNtCs4PyLZvEkasu_7gittype4game7screens16animation_screenNtB4_15AnimationScreen19get_tier_from_titles_0Ba_
FNDA:0,_RNCNvMNtNtNtCs4PyLZvEkasu_7gittype4game7screens16animation_screenNtB4_15AnimationScreen22show_session_animation0Ba_
FNDA:0,_RNCNvMNtNtNtCs4PyLZvEkasu_7gittype4game7screens16animation_screenNtB4_15AnimationScreen22show_session_animations0_0Ba_
FNDA:0,_RNCNvMNtNtNtCs4PyLZvEkasu_7gittype4game7screens16animation_screenNtB4_15AnimationScreen22show_session_animations_0Ba_
FNDA:0,_RNvMNtNtNtCs4PyLZvEkasu_7gittype4game7screens16animation_screenNtB2_15AnimationScreen16render_skip_hint
FNDA:0,_RNvMNtNtNtCs4PyLZvEkasu_7gittype4game7screens16animation_screenNtB2_15AnimationScreen19get_tier_from_title
FNDA:0,_RNvMNtNtNtCs4PyLZvEkasu_7gittype4game7screens16animation_screenNtB2_15AnimationScreen22show_session_animation
FNDA:0,_RNvMNtNtNtCs4PyLZvEkasu_7gittype4game7screens16animation_screenNtB2_15AnimationScreen23convert_crossterm_color
FNDA:0,_RNvMNtNtNtCs4PyLZvEkasu_7gittype4game7screens16animation_screenNtB2_15AnimationScreen31render_typing_animation_ratatui
FNDA:0,_RNCNvMNtNtNtCscZjyiejqBjN_7gittype4game7screens16animation_screenNtB4_15AnimationScreen19get_tier_from_title0Ba_
FNDA:0,_RNCNvMNtNtNtCscZjyiejqBjN_7gittype4game7screens16animation_screenNtB4_15AnimationScreen19get_tier_from_titles_0Ba_
FNDA:0,_RNCNvMNtNtNtCscZjyiejqBjN_7gittype4game7screens16animation_screenNtB4_15AnimationScreen22show_session_animation0Ba_
FNDA:0,_RNCNvMNtNtNtCscZjyiejqBjN_7gittype4game7screens16animation_screenNtB4_15AnimationScreen22show_session_animations0_0Ba_
FNDA:0,_RNCNvMNtNtNtCscZjyiejqBjN_7gittype4game7screens16animation_screenNtB4_15AnimationScreen22show_session_animations_0Ba_
FNDA:0,_RNvMNtNtNtCscZjyiejqBjN_7gittype4game7screens16animation_screenNtB2_15AnimationScreen16render_skip_hint
FNDA:0,_RNvMNtNtNtCscZjyiejqBjN_7gittype4game7screens16animation_screenNtB2_15AnimationScreen19get_tier_from_title
FNDA:0,_RNvMNtNtNtCscZjyiejqBjN_7gittype4game7screens16animation_screenNtB2_15AnimationScreen22show_session_animation
FNDA:0,_RNvMNtNtNtCscZjyiejqBjN_7gittype4game7screens16animation_screenNtB2_15AnimationScreen23convert_crossterm_color
FNDA:0,_RNvMNtNtNtCscZjyiejqBjN_7gittype4game7screens16animation_screenNtB2_15AnimationScreen31render_typing_animation_ratatui
FNF:10
FNH:0
DA:19,0
DA:20,0
DA:21,0
DA:22,0
DA:23,0
DA:24,0
DA:25,0
DA:26,0
DA:27,0
DA:28,0
DA:29,0
DA:30,0
DA:31,0
DA:32,0
DA:33,0
DA:34,0
DA:35,0
DA:36,0
DA:37,0
DA:39,0
DA:42,0
DA:43,0
DA:44,0
DA:45,0
DA:46,0
DA:47,0
DA:50,0
DA:51,0
DA:52,0
DA:53,0
DA:54,0
DA:55,0
DA:56,0
DA:57,0
DA:59,0
DA:61,0
DA:63,0
DA:64,0
DA:65,0
DA:67,0
DA:68,0
DA:69,0
DA:70,0
DA:71,0
DA:72,0
DA:73,0
DA:74,0
DA:75,0
DA:76,0
DA:77,0
DA:78,0
DA:79,0
DA:80,0
DA:81,0
DA:82,0
DA:83,0
DA:84,0
DA:85,0
DA:88,0
DA:90,0
DA:93,0
DA:97,0
DA:99,0
DA:100,0
DA:101,0
DA:102,0
DA:103,0
DA:104,0
DA:105,0
DA:108,0
DA:109,0
DA:110,0
DA:111,0
DA:114,0
DA:116,0
DA:119,0
DA:121,0
DA:122,0
DA:123,0
DA:125,0
DA:128,0
DA:129,0
DA:130,0
DA:131,0
DA:134,0
DA:135,0
DA:137,0
DA:138,0
DA:139,0
DA:140,0
DA:141,0
DA:142,0
DA:144,0
DA:145,0
DA:147,0
DA:148,0
DA:151,0
DA:152,0
DA:153,0
DA:154,0
DA:155,0
DA:156,0
DA:157,0
DA:159,0
DA:160,0
DA:161,0
DA:162,0
DA:163,0
DA:165,0
DA:166,0
DA:167,0
DA:169,0
DA:170,0
DA:171,0
DA:172,0
DA:173,0
DA:175,0
DA:176,0
DA:179,0
DA:184,0
DA:185,0
DA:186,0
DA:189,0
DA:190,0
DA:191,0
DA:192,0
DA:195,0
DA:196,0
DA:198,0
DA:199,0
DA:200,0
DA:201,0
DA:202,0
DA:203,0
DA:206,0
DA:207,0
DA:208,0
DA:210,0
DA:212,0
DA:213,0
DA:214,0
DA:216,0
DA:217,0
DA:219,0
DA:222,0
DA:223,0
BRF:0
BRH:0
LF:152
LH:0
end_of_record
SF:/home/owner/.ghq/github.com/unhappychoice/gittype/src/game/screens/countdown_screen.rs
FN:19,_RNvMNtNtNtCscZjyiejqBjN_7gittype4game7screens16countdown_screenNtB2_15CountdownScreen19show_with_challenge
FN:148,_RNvMNtNtNtCscZjyiejqBjN_7gittype4game7screens16countdown_screenNtB2_15CountdownScreen21show_stage_transition
FN:285,_RNvMNtNtNtCscZjyiejqBjN_7gittype4game7screens16countdown_screenNtB2_15CountdownScreen27clear_input_buffer_and_wait
FN:152,_RNvMNtNtNtCscZjyiejqBjN_7gittype4game7screens16countdown_screenNtB2_15CountdownScreen36show_stage_transition_with_challenge
FN:15,_RNvMNtNtNtCscZjyiejqBjN_7gittype4game7screens16countdown_screenNtB2_15CountdownScreen4show
FN:19,_RNvMNtNtNtCs4PyLZvEkasu_7gittype4game7screens16countdown_screenNtB2_15CountdownScreen19show_with_challenge
FN:148,_RNvMNtNtNtCs4PyLZvEkasu_7gittype4game7screens16countdown_screenNtB2_15CountdownScreen21show_stage_transition
FN:285,_RNvMNtNtNtCs4PyLZvEkasu_7gittype4game7screens16countdown_screenNtB2_15CountdownScreen27clear_input_buffer_and_wait
FN:152,_RNvMNtNtNtCs4PyLZvEkasu_7gittype4game7screens16countdown_screenNtB2_15CountdownScreen36show_stage_transition_with_challenge
FN:15,_RNvMNtNtNtCs4PyLZvEkasu_7gittype4game7screens16countdown_screenNtB2_15CountdownScreen4show
FNDA:0,_RNvMNtNtNtCscZjyiejqBjN_7gittype4game7screens16countdown_screenNtB2_15CountdownScreen19show_with_challenge
FNDA:0,_RNvMNtNtNtCscZjyiejqBjN_7gittype4game7screens16countdown_screenNtB2_15CountdownScreen21show_stage_transition
FNDA:0,_RNvMNtNtNtCscZjyiejqBjN_7gittype4game7screens16countdown_screenNtB2_15CountdownScreen27clear_input_buffer_and_wait
FNDA:0,_RNvMNtNtNtCscZjyiejqBjN_7gittype4game7screens16countdown_screenNtB2_15CountdownScreen36show_stage_transition_with_challenge
FNDA:0,_RNvMNtNtNtCscZjyiejqBjN_7gittype4game7screens16countdown_screenNtB2_15CountdownScreen4show
FNDA:0,_RNvMNtNtNtCs4PyLZvEkasu_7gittype4game7screens16countdown_screenNtB2_15CountdownScreen19show_with_challenge
FNDA:0,_RNvMNtNtNtCs4PyLZvEkasu_7gittype4game7screens16countdown_screenNtB2_15CountdownScreen21show_stage_transition
FNDA:0,_RNvMNtNtNtCs4PyLZvEkasu_7gittype4game7screens16countdown_screenNtB2_15CountdownScreen27clear_input_buffer_and_wait
FNDA:0,_RNvMNtNtNtCs4PyLZvEkasu_7gittype4game7screens16countdown_screenNtB2_15CountdownScreen36show_stage_transition_with_challenge
FNDA:0,_RNvMNtNtNtCs4PyLZvEkasu_7gittype4game7screens16countdown_screenNtB2_15CountdownScreen4show
FNF:5
FNH:0
DA:15,0
DA:16,0
DA:17,0
DA:19,0
DA:20,0
DA:21,0
DA:22,0
DA:23,0
DA:26,0
DA:27,0
DA:28,0
DA:29,0
DA:30,0
DA:32,0
DA:34,0
DA:35,0
DA:36,0
DA:37,0
DA:38,0
DA:39,0
DA:40,0
DA:43,0
DA:44,0
DA:45,0
DA:48,0
DA:49,0
DA:50,0
DA:51,0
DA:52,0
DA:54,0
DA:56,0
DA:57,0
DA:58,0
DA:59,0
DA:60,0
DA:61,0
DA:62,0
DA:64,0
DA:65,0
DA:66,0
DA:69,0
DA:70,0
DA:71,0
DA:72,0
DA:74,0
DA:77,0
DA:78,0
DA:81,0
DA:82,0
DA:83,0
DA:84,0
DA:86,0
DA:88,0
DA:90,0
DA:91,0
DA:92,0
DA:93,0
DA:94,0
DA:95,0
DA:96,0
DA:99,0
DA:100,0
DA:101,0
DA:104,0
DA:105,0
DA:106,0
DA:109,0
DA:110,0
DA:111,0
DA:112,0
DA:115,0
DA:116,0
DA:117,0
DA:118,0
DA:119,0
DA:122,0
DA:123,0
DA:124,0
DA:126,0
DA:130,0
DA:131,0
DA:132,0
DA:133,0
DA:134,0
DA:135,0
DA:138,0
DA:139,0
DA:140,0
DA:141,0
DA:143,0
DA:145,0
DA:146,0
DA:148,0
DA:149,0
DA:150,0
DA:152,0
DA:153,0
DA:154,0
DA:155,0
DA:156,0
DA:157,0
DA:158,0
DA:159,0
DA:160,0
DA:163,0
DA:164,0
DA:165,0
DA:166,0
DA:167,0
DA:169,0
DA:171,0
DA:172,0
DA:173,0
DA:174,0
DA:175,0
DA:176,0
DA:177,0
DA:180,0
DA:181,0
DA:182,0
DA:185,0
DA:186,0
DA:187,0
DA:188,0
DA:189,0
DA:191,0
DA:193,0
DA:194,0
DA:195,0
DA:196,0
DA:197,0
DA:198,0
DA:199,0
DA:201,0
DA:202,0
DA:203,0
DA:206,0
DA:207,0
DA:208,0
DA:209,0
DA:211,0
DA:214,0
DA:215,0
DA:218,0
DA:219,0
DA:220,0
DA:221,0
DA:223,0
DA:225,0
DA:227,0
DA:228,0
DA:229,0
DA:230,0
DA:231,0
DA:232,0
DA:233,0
DA:236,0
DA:237,0
DA:238,0
DA:241,0
DA:242,0
DA:243,0
DA:246,0
DA:247,0
DA:248,0
DA:249,0
DA:252,0
DA:253,0
DA:254,0
DA:255,0
DA:256,0
DA:259,0
DA:260,0
DA:261,0
DA:263,0
DA:267,0
DA:268,0
DA:269,0
DA:270,0
DA:271,0
DA:272,0
DA:275,0
DA:276,0
DA:277,0
DA:278,0
DA:280,0
DA:282,0
DA:283,0
DA:285,0
DA:286,0
DA:288,0
DA:289,0
DA:290,0
DA:291,0
DA:292,0
DA:295,0
DA:296,0
DA:297,0
DA:298,0
DA:299,0
DA:301,0
DA:302,0
BRF:0
BRH:0
LF:202
LH:0
end_of_record
SF:/home/owner/.ghq/github.com/unhappychoice/gittype/src/game/screens/exit_summary_screen.rs
FN:442,_RNCNvMNtNtNtCs4PyLZvEkasu_7gittype4game7screens19exit_summary_screenNtB4_17ExitSummaryScreen12open_browser0Ba_
FN:441,_RNvMNtNtNtCs4PyLZvEkasu_7gittype4game7screens19exit_summary_screenNtB2_17ExitSummaryScreen12open_browser
FN:274,_RNvMNtNtNtCs4PyLZvEkasu_7gittype4game7screens19exit_summary_screenNtB2_17ExitSummaryScreen17show_sharing_menu
FN:58,_RNvMNtNtNtCs4PyLZvEkasu_7gittype4game7screens19exit_summary_screenNtB2_17ExitSummaryScreen20create_ascii_numbers
FN:447,_RNvMNtNtNtCs4PyLZvEkasu_7gittype4game7screens19exit_summary_screenNtB2_17ExitSummaryScreen20display_url_fallback
FN:387,_RNvMNtNtNtCs4PyLZvEkasu_7gittype4game7screens19exit_summary_screenNtB2_17ExitSummaryScreen20share_session_result
FN:22,_RNvMNtNtNtCs4PyLZvEkasu_7gittype4game7screens19exit_summary_screenNtB2_17ExitSummaryScreen25create_session_share_text
FN:400,_RNvMNtNtNtCs4PyLZvEkasu_7gittype4game7screens19exit_summary_screenNtB2_17ExitSummaryScreen26generate_session_share_url
FN:33,_RNvMNtNtNtCs4PyLZvEkasu_7gittype4game7screens19exit_summary_screenNtB2_17ExitSummaryScreen33session_summary_to_typing_metrics
FN:76,_RNvMNtNtNtCs4PyLZvEkasu_7gittype4game7screens19exit_summary_screenNtB2_17ExitSummaryScreen4show
FN:442,_RNCNvMNtNtNtCscZjyiejqBjN_7gittype4game7screens19exit_summary_screenNtB4_17ExitSummaryScreen12open_browser0Ba_
FN:441,_RNvMNtNtNtCscZjyiejqBjN_7gittype4game7screens19exit_summary_screenNtB2_17ExitSummaryScreen12open_browser
FN:274,_RNvMNtNtNtCscZjyiejqBjN_7gittype4game7screens19exit_summary_screenNtB2_17ExitSummaryScreen17show_sharing_menu
FN:58,_RNvMNtNtNtCscZjyiejqBjN_7gittype4game7screens19exit_summary_screenNtB2_17ExitSummaryScreen20create_ascii_numbers
FN:447,_RNvMNtNtNtCscZjyiejqBjN_7gittype4game7screens19exit_summary_screenNtB2_17ExitSummaryScreen20display_url_fallback
FN:387,_RNvMNtNtNtCscZjyiejqBjN_7gittype4game7screens19exit_summary_screenNtB2_17ExitSummaryScreen20share_session_result
FN:22,_RNvMNtNtNtCscZjyiejqBjN_7gittype4game7screens19exit_summary_screenNtB2_17ExitSummaryScreen25create_session_share_text
FN:400,_RNvMNtNtNtCscZjyiejqBjN_7gittype4game7screens19exit_summary_screenNtB2_17ExitSummaryScreen26generate_session_share_url
FN:33,_RNvMNtNtNtCscZjyiejqBjN_7gittype4game7screens19exit_summary_screenNtB2_17ExitSummaryScreen33session_summary_to_typing_metrics
FN:76,_RNvMNtNtNtCscZjyiejqBjN_7gittype4game7screens19exit_summary_screenNtB2_17ExitSummaryScreen4show
FNDA:0,_RNCNvMNtNtNtCs4PyLZvEkasu_7gittype4game7screens19exit_summary_screenNtB4_17ExitSummaryScreen12open_browser0Ba_
FNDA:0,_RNvMNtNtNtCs4PyLZvEkasu_7gittype4game7screens19exit_summary_screenNtB2_17ExitSummaryScreen12open_browser
FNDA:0,_RNvMNtNtNtCs4PyLZvEkasu_7gittype4game7screens19exit_summary_screenNtB2_17ExitSummaryScreen17show_sharing_menu
FNDA:0,_RNvMNtNtNtCs4PyLZvEkasu_7gittype4game7screens19exit_summary_screenNtB2_17ExitSummaryScreen20create_ascii_numbers
FNDA:0,_RNvMNtNtNtCs4PyLZvEkasu_7gittype4game7screens19exit_summary_screenNtB2_17ExitSummaryScreen20display_url_fallback
FNDA:0,_RNvMNtNtNtCs4PyLZvEkasu_7gittype4game7screens19exit_summary_screenNtB2_17ExitSummaryScreen20share_session_result
FNDA:0,_RNvMNtNtNtCs4PyLZvEkasu_7gittype4game7screens19exit_summary_screenNtB2_17ExitSummaryScreen25create_session_share_text
FNDA:0,_RNvMNtNtNtCs4PyLZvEkasu_7gittype4game7screens19exit_summary_screenNtB2_17ExitSummaryScreen26generate_session_share_url
FNDA:0,_RNvMNtNtNtCs4PyLZvEkasu_7gittype4game7screens19exit_summary_screenNtB2_17ExitSummaryScreen33session_summary_to_typing_metrics
FNDA:0,_RNvMNtNtNtCs4PyLZvEkasu_7gittype4game7screens19exit_summary_screenNtB2_17ExitSummaryScreen4show
FNDA:0,_RNCNvMNtNtNtCscZjyiejqBjN_7gittype4game7screens19exit_summary_screenNtB4_17ExitSummaryScreen12open_browser0Ba_
FNDA:0,_RNvMNtNtNtCscZjyiejqBjN_7gittype4game7screens19exit_summary_screenNtB2_17ExitSummaryScreen12open_browser
FNDA:0,_RNvMNtNtNtCscZjyiejqBjN_7gittype4game7screens19exit_summary_screenNtB2_17ExitSummaryScreen17show_sharing_menu
FNDA:0,_RNvMNtNtNtCscZjyiejqBjN_7gittype4game7screens19exit_summary_screenNtB2_17ExitSummaryScreen20create_ascii_numbers
FNDA:0,_RNvMNtNtNtCscZjyiejqBjN_7gittype4game7screens19exit_summary_screenNtB2_17ExitSummaryScreen20display_url_fallback
FNDA:0,_RNvMNtNtNtCscZjyiejqBjN_7gittype4game7screens19exit_summary_screenNtB2_17ExitSummaryScreen20share_session_result
FNDA:0,_RNvMNtNtNtCscZjyiejqBjN_7gittype4game7screens19exit_summary_screenNtB2_17ExitSummaryScreen25create_session_share_text
FNDA:0,_RNvMNtNtNtCscZjyiejqBjN_7gittype4game7screens19exit_summary_screenNtB2_17ExitSummaryScreen26generate_session_share_url
FNDA:0,_RNvMNtNtNtCscZjyiejqBjN_7gittype4game7screens19exit_summary_screenNtB2_17ExitSummaryScreen33session_summary_to_typing_metrics
FNDA:0,_RNvMNtNtNtCscZjyiejqBjN_7gittype4game7screens19exit_summary_screenNtB2_17ExitSummaryScreen4show
FNF:10
FNH:0
DA:22,0
DA:23,0
DA:24,0
DA:25,0
DA:28,0
DA:29,0
DA:31,0
DA:33,0
DA:34,0
DA:35,0
DA:39,0
DA:40,0
DA:41,0
DA:42,0
DA:44,0
DA:45,0
DA:46,0
DA:47,0
DA:48,0
DA:49,0
DA:50,0
DA:51,0
DA:52,0
DA:53,0
DA:54,0
DA:55,0
DA:56,0
DA:58,0
DA:59,0
DA:60,0
DA:61,0
DA:63,0
DA:64,0
DA:65,0
DA:66,0
DA:67,0
DA:68,0
DA:69,0
DA:70,0
DA:73,0
DA:74,0
DA:76,0
DA:77,0
DA:80,0
DA:81,0
DA:82,0
DA:83,0
DA:86,0
DA:88,0
DA:89,0
DA:90,0
DA:92,0
DA:93,0
DA:95,0
DA:96,0
DA:97,0
DA:98,0
DA:100,0
DA:101,0
DA:102,0
DA:105,0
DA:106,0
DA:107,0
DA:111,0
DA:112,0
DA:113,0
DA:115,0
DA:116,0
DA:117,0
DA:118,0
DA:119,0
DA:122,0
DA:123,0
DA:124,0
DA:125,0
DA:126,0
DA:127,0
DA:130,0
DA:131,0
DA:132,0
DA:133,0
DA:135,0
DA:136,0
DA:137,0
DA:140,0
DA:141,0
DA:142,0
DA:144,0
DA:145,0
DA:146,0
DA:148,0
DA:149,0
DA:150,0
DA:151,0
DA:152,0
DA:155,0
DA:156,0
DA:157,0
DA:161,0
DA:163,0
DA:164,0
DA:165,0
DA:170,0
DA:171,0
DA:172,0
DA:173,0
DA:179,0
DA:180,0
DA:181,0
DA:183,0
DA:184,0
DA:185,0
DA:186,0
DA:187,0
DA:188,0
DA:192,0
DA:193,0
DA:195,0
DA:196,0
DA:197,0
DA:198,0
DA:199,0
DA:200,0
DA:201,0
DA:202,0
DA:203,0
DA:204,0
DA:206,0
DA:207,0
DA:208,0
DA:209,0
DA:210,0
DA:211,0
DA:213,0
DA:216,0
DA:217,0
DA:219,0
DA:222,0
DA:223,0
DA:224,0
DA:225,0
DA:226,0
DA:229,0
DA:230,0
DA:231,0
DA:233,0
DA:235,0
DA:236,0
DA:237,0
DA:238,0
DA:239,0
DA:240,0
DA:243,0
DA:247,0
DA:248,0
DA:249,0
DA:251,0
DA:252,0
DA:253,0
DA:255,0
DA:258,0
DA:261,0
DA:263,0
DA:266,0
DA:269,0
DA:270,0
DA:272,0
DA:274,0
DA:275,0
DA:279,0
DA:280,0
DA:282,0
DA:283,0
DA:284,0
DA:287,0
DA:288,0
DA:289,0
DA:290,0
DA:291,0
DA:294,0
DA:295,0
DA:296,0
DA:299,0
DA:300,0
DA:303,0
DA:304,0
DA:305,0
DA:307,0
DA:308,0
DA:309,0
DA:310,0
DA:311,0
DA:314,0
DA:315,0
DA:317,0
DA:318,0
DA:319,0
DA:320,0
DA:321,0
DA:322,0
DA:323,0
DA:327,0
DA:328,0
DA:329,0
DA:330,0
DA:332,0
DA:333,0
DA:334,0
DA:335,0
DA:337,0
DA:341,0
DA:342,0
DA:343,0
DA:345,0
DA:346,0
DA:347,0
DA:348,0
DA:349,0
DA:352,0
DA:353,0
DA:354,0
DA:355,0
DA:356,0
DA:359,0
DA:360,0
DA:361,0
DA:362,0
DA:363,0
DA:366,0
DA:367,0
DA:368,0
DA:369,0
DA:370,0
DA:372,0
DA:374,0
DA:376,0
DA:378,0
DA:380,0
DA:381,0
DA:384,0
DA:385,0
DA:387,0
DA:388,0
DA:389,0
DA:390,0
DA:391,0
DA:392,0
DA:394,0
DA:395,0
DA:396,0
DA:398,0
DA:400,0
DA:401,0
DA:402,0
DA:403,0
DA:404,0
DA:405,0
DA:407,0
DA:408,0
DA:409,0
DA:413,0
DA:414,0
DA:415,0
DA:419,0
DA:420,0
DA:421,0
DA:422,0
DA:426,0
DA:427,0
DA:428,0
DA:432,0
DA:433,0
DA:434,0
DA:435,0
DA:439,0
DA:441,0
DA:442,0
DA:443,0
DA:444,0
DA:445,0
DA:447,0
DA:457,0
DA:458,0
DA:460,0
DA:461,0
DA:462,0
DA:465,0
DA:466,0
DA:467,0
DA:468,0
DA:469,0
DA:472,0
DA:473,0
DA:474,0
DA:477,0
DA:478,0
DA:479,0
DA:480,0
DA:482,0
DA:483,0
DA:484,0
DA:485,0
DA:488,0
DA:489,0
DA:490,0
DA:491,0
DA:492,0
DA:495,0
DA:496,0
DA:497,0
DA:500,0
DA:501,0
DA:502,0
DA:503,0
DA:504,0
DA:505,0
DA:507,0
DA:511,0
DA:512,0
DA:513,0
DA:514,0
DA:515,0
DA:516,0
DA:517,0
DA:520,0
DA:521,0
BRF:0
BRH:0
LF:327
LH:0
end_of_record
SF:/home/owner/.ghq/github.com/unhappychoice/gittype/src/game/screens/info_dialog.rs
FN:178,_RNvMNtNtNtCscZjyiejqBjN_7gittype4game7screens11info_dialogNtB2_10InfoDialog11open_github
FN:186,_RNvMNtNtNtCscZjyiejqBjN_7gittype4game7screens11info_dialogNtB2_10InfoDialog12open_twitter
FN:91,_RNvMNtNtNtCscZjyiejqBjN_7gittype4game7screens11info_dialogNtB2_10InfoDialog15draw_dialog_box
FN:194,_RNvMNtNtNtCscZjyiejqBjN_7gittype4game7screens11info_dialogNtB2_10InfoDialog17show_url_fallback
FN:124,_RNvMNtNtNtCscZjyiejqBjN_7gittype4game7screens11info_dialogNtB2_10InfoDialog19draw_dialog_content
FN:221,_RNvMNtNtNtCscZjyiejqBjN_7gittype4game7screens11info_dialogNtB2_10InfoDialog20draw_fallback_dialog
FN:20,_RNvMNtNtNtCscZjyiejqBjN_7gittype4game7screens11info_dialogNtB2_10InfoDialog4show
FN:178,_RNvMNtNtNtCs4PyLZvEkasu_7gittype4game7screens11info_dialogNtB2_10InfoDialog11open_github
FN:186,_RNvMNtNtNtCs4PyLZvEkasu_7gittype4game7screens11info_dialogNtB2_10InfoDialog12open_twitter
FN:91,_RNvMNtNtNtCs4PyLZvEkasu_7gittype4game7screens11info_dialogNtB2_10InfoDialog15draw_dialog_box
FN:194,_RNvMNtNtNtCs4PyLZvEkasu_7gittype4game7screens11info_dialogNtB2_10InfoDialog17show_url_fallback
FN:124,_RNvMNtNtNtCs4PyLZvEkasu_7gittype4game7screens11info_dialogNtB2_10InfoDialog19draw_dialog_content
FN:221,_RNvMNtNtNtCs4PyLZvEkasu_7gittype4game7screens11info_dialogNtB2_10InfoDialog20draw_fallback_dialog
FN:20,_RNvMNtNtNtCs4PyLZvEkasu_7gittype4game7screens11info_dialogNtB2_10InfoDialog4show
FNDA:0,_RNvMNtNtNtCscZjyiejqBjN_7gittype4game7screens11info_dialogNtB2_10InfoDialog11open_github
FNDA:0,_RNvMNtNtNtCscZjyiejqBjN_7gittype4game7screens11info_dialogNtB2_10InfoDialog12open_twitter
FNDA:0,_RNvMNtNtNtCscZjyiejqBjN_7gittype4game7screens11info_dialogNtB2_10InfoDialog15draw_dialog_box
FNDA:0,_RNvMNtNtNtCscZjyiejqBjN_7gittype4game7screens11info_dialogNtB2_10InfoDialog17show_url_fallback
FNDA:0,_RNvMNtNtNtCscZjyiejqBjN_7gittype4game7screens11info_dialogNtB2_10InfoDialog19draw_dialog_content
FNDA:0,_RNvMNtNtNtCscZjyiejqBjN_7gittype4game7screens11info_dialogNtB2_10InfoDialog20draw_fallback_dialog
FNDA:0,_RNvMNtNtNtCscZjyiejqBjN_7gittype4game7screens11info_dialogNtB2_10InfoDialog4show
FNDA:0,_RNvMNtNtNtCs4PyLZvEkasu_7gittype4game7screens11info_dialogNtB2_10InfoDialog11open_github
FNDA:0,_RNvMNtNtNtCs4PyLZvEkasu_7gittype4game7screens11info_dialogNtB2_10InfoDialog12open_twitter
FNDA:0,_RNvMNtNtNtCs4PyLZvEkasu_7gittype4game7screens11info_dialogNtB2_10InfoDialog15draw_dialog_box
FNDA:0,_RNvMNtNtNtCs4PyLZvEkasu_7gittype4game7screens11info_dialogNtB2_10InfoDialog17show_url_fallback
FNDA:0,_RNvMNtNtNtCs4PyLZvEkasu_7gittype4game7screens11info_dialogNtB2_10InfoDialog19draw_dialog_content
FNDA:0,_RNvMNtNtNtCs4PyLZvEkasu_7gittype4game7screens11info_dialogNtB2_10InfoDialog20draw_fallback_dialog
FNDA:0,_RNvMNtNtNtCs4PyLZvEkasu_7gittype4game7screens11info_dialogNtB2_10InfoDialog4show
FNF:7
FNH:0
DA:20,0
DA:21,0
DA:22,0
DA:23,0
DA:24,0
DA:25,0
DA:26,0
DA:28,0
DA:29,0
DA:30,0
DA:31,0
DA:34,0
DA:35,0
DA:36,0
DA:37,0
DA:38,0
DA:39,0
DA:40,0
DA:41,0
DA:42,0
DA:45,0
DA:46,0
DA:47,0
DA:49,0
DA:50,0
DA:51,0
DA:52,0
DA:56,0
DA:57,0
DA:59,0
DA:61,0
DA:62,0
DA:63,0
DA:64,0
DA:65,0
DA:66,0
DA:67,0
DA:68,0
DA:71,0
DA:72,0
DA:73,0
DA:74,0
DA:75,0
DA:76,0
DA:77,0
DA:78,0
DA:79,0
DA:81,0
DA:82,0
DA:83,0
DA:84,0
DA:86,0
DA:87,0
DA:89,0
DA:91,0
DA:92,0
DA:93,0
DA:94,0
DA:95,0
DA:96,0
DA:97,0
DA:98,0
DA:99,0
DA:102,0
DA:103,0
DA:104,0
DA:105,0
DA:106,0
DA:107,0
DA:108,0
DA:109,0
DA:110,0
DA:111,0
DA:112,0
DA:114,0
DA:115,0
DA:116,0
DA:118,0
DA:121,0
DA:122,0
DA:124,0
DA:125,0
DA:126,0
DA:127,0
DA:128,0
DA:129,0
DA:130,0
DA:131,0
DA:134,0
DA:135,0
DA:136,0
DA:137,0
DA:138,0
DA:141,0
DA:142,0
DA:143,0
DA:146,0
DA:147,0
DA:148,0
DA:150,0
DA:151,0
DA:152,0
DA:155,0
DA:156,0
DA:157,0
DA:158,0
DA:160,0
DA:161,0
DA:162,0
DA:164,0
DA:168,0
DA:169,0
DA:170,0
DA:171,0
DA:172,0
DA:173,0
DA:175,0
DA:176,0
DA:178,0
DA:179,0
DA:180,0
DA:181,0
DA:182,0
DA:183,0
DA:184,0
DA:186,0
DA:187,0
DA:188,0
DA:189,0
DA:190,0
DA:191,0
DA:192,0
DA:194,0
DA:195,0
DA:196,0
DA:197,0
DA:198,0
DA:201,0
DA:204,0
DA:205,0
DA:209,0
DA:210,0
DA:211,0
DA:212,0
DA:213,0
DA:214,0
DA:215,0
DA:218,0
DA:219,0
DA:221,0
DA:222,0
DA:223,0
DA:224,0
DA:225,0
DA:226,0
DA:227,0
DA:228,0
DA:229,0
DA:230,0
DA:231,0
DA:234,0
DA:235,0
DA:236,0
DA:237,0
DA:238,0
DA:239,0
DA:240,0
DA:241,0
DA:242,0
DA:243,0
DA:244,0
DA:246,0
DA:247,0
DA:248,0
DA:250,0
DA:254,0
DA:255,0
DA:256,0
DA:257,0
DA:258,0
DA:261,0
DA:262,0
DA:263,0
DA:266,0
DA:267,0
DA:268,0
DA:269,0
DA:270,0
DA:271,0
DA:274,0
DA:275,0
DA:276,0
DA:277,0
DA:280,0
DA:281,0
DA:282,0
DA:285,0
DA:286,0
DA:287,0
DA:288,0
DA:289,0
DA:290,0
DA:292,0
DA:293,0
BRF:0
BRH:0
LF:204
LH:0
end_of_record
SF:/home/owner/.ghq/github.com/unhappychoice/gittype/src/game/screens/loading_screen.rs
FN:355,_RNvXs_NtNtNtCs4PyLZvEkasu_7gittype4game7screens14loading_screenNtB4_13LoadingScreenNtNtNtCs66KPHxksi63_4core3ops4drop4Drop4drop
FN:257,_RNvMNtNtNtCs4PyLZvEkasu_7gittype4game7screens14loading_screenNtB2_13LoadingScreen10draw_phase
FN:57,_RNvMNtNtNtCs4PyLZvEkasu_7gittype4game7screens14loading_screenNtB2_13LoadingScreen12show_initial
FN:61,_RNvMNtNtNtCs4PyLZvEkasu_7gittype4game7screens14loading_screenNtB2_13LoadingScreen12update_phase
FN:290,_RNvMNtNtNtCs4PyLZvEkasu_7gittype4game7screens14loading_screenNtB2_13LoadingScreen13draw_progress
FN:92,_RNvMNtNtNtCs4PyLZvEkasu_7gittype4game7screens14loading_screenNtB2_13LoadingScreen14update_spinner
FN:116,_RNvMNtNtNtCs4PyLZvEkasu_7gittype4game7screens14loading_screenNtB2_13LoadingScreen15show_completion
FN:84,_RNvMNtNtNtCs4PyLZvEkasu_7gittype4game7screens14loading_screenNtB2_13LoadingScreen15update_progress
FN:211,_RNvMNtNtNtCs4PyLZvEkasu_7gittype4game7screens14loading_screenNtB2_13LoadingScreen16draw_description
FN:137,_RNvMNtNtNtCs4PyLZvEkasu_7gittype4game7screens14loading_screenNtB2_13LoadingScreen16render_throttled
FN:195,_RNvMNtNtNtCs4PyLZvEkasu_7gittype4game7screens14loading_screenNtB2_13LoadingScreen20draw_loading_message
FN:35,_RNvMNtNtNtCs4PyLZvEkasu_7gittype4game7screens14loading_screenNtB2_13LoadingScreen3new
FN:133,_RNvMNtNtNtCs4PyLZvEkasu_7gittype4game7screens14loading_screenNtB2_13LoadingScreen6render
FN:340,_RNvMNtNtNtCs4PyLZvEkasu_7gittype4game7screens14loading_screenNtB2_13LoadingScreen7cleanup
FN:154,_RNvMNtNtNtCs4PyLZvEkasu_7gittype4game7screens14loading_screenNtB2_13LoadingScreen7draw_ui
FN:365,_RNvXs0_NtNtNtCs4PyLZvEkasu_7gittype4game7screens14loading_screenNtB5_13LoadingScreenNtNtNtBb_9extractor8progress16ProgressReporter12set_progress
FN:384,_RNvXs0_NtNtNtCs4PyLZvEkasu_7gittype4game7screens14loading_screenNtB5_13LoadingScreenNtNtNtBb_9extractor8progress16ProgressReporter14update_spinner
FN:375,_RNvXs0_NtNtNtCs4PyLZvEkasu_7gittype4game7screens14loading_screenNtB5_13LoadingScreenNtNtNtBb_9extractor8progress16ProgressReporter15set_file_counts
FN:371,_RNvXs0_NtNtNtCs4PyLZvEkasu_7gittype4game7screens14loading_screenNtB5_13LoadingScreenNtNtNtBb_9extractor8progress16ProgressReporter16set_current_file
FN:361,_RNvXs0_NtNtNtCs4PyLZvEkasu_7gittype4game7screens14loading_screenNtB5_13LoadingScreenNtNtNtBb_9extractor8progress16ProgressReporter9set_phase
FN:149,_RNCNvMNtNtNtCs4PyLZvEkasu_7gittype4game7screens14loading_screenNtB4_13LoadingScreen16render_throttled0Ba_
FN:149,_RNCNvMNtNtNtCscZjyiejqBjN_7gittype4game7screens14loading_screenNtB4_13LoadingScreen16render_throttled0Ba_
FN:257,_RNvMNtNtNtCscZjyiejqBjN_7gittype4game7screens14loading_screenNtB2_13LoadingScreen10draw_phase
FN:57,_RNvMNtNtNtCscZjyiejqBjN_7gittype4game7screens14loading_screenNtB2_13LoadingScreen12show_initial
FN:61,_RNvMNtNtNtCscZjyiejqBjN_7gittype4game7screens14loading_screenNtB2_13LoadingScreen12update_phase
FN:290,_RNvMNtNtNtCscZjyiejqBjN_7gittype4game7screens14loading_screenNtB2_13LoadingScreen13draw_progress
FN:92,_RNvMNtNtNtCscZjyiejqBjN_7gittype4game7screens14loading_screenNtB2_13LoadingScreen14update_spinner
FN:116,_RNvMNtNtNtCscZjyiejqBjN_7gittype4game7screens14loading_screenNtB2_13LoadingScreen15show_completion
FN:84,_RNvMNtNtNtCscZjyiejqBjN_7gittype4game7screens14loading_screenNtB2_13LoadingScreen15update_progress
FN:211,_RNvMNtNtNtCscZjyiejqBjN_7gittype4game7screens14loading_screenNtB2_13LoadingScreen16draw_description
FN:137,_RNvMNtNtNtCscZjyiejqBjN_7gittype4game7screens14loading_screenNtB2_13LoadingScreen16render_throttled
FN:195,_RNvMNtNtNtCscZjyiejqBjN_7gittype4game7screens14loading_screenNtB2_13LoadingScreen20draw_loading_message
FN:35,_RNvMNtNtNtCscZjyiejqBjN_7gittype4game7screens14loading_screenNtB2_13LoadingScreen3new
FN:133,_RNvMNtNtNtCscZjyiejqBjN_7gittype4game7screens14loading_screenNtB2_13LoadingScreen6render
FN:340,_RNvMNtNtNtCscZjyiejqBjN_7gittype4game7screens14loading_screenNtB2_13LoadingScreen7cleanup
FN:154,_RNvMNtNtNtCscZjyiejqBjN_7gittype4game7screens14loading_screenNtB2_13LoadingScreen7draw_ui
FN:365,_RNvXs0_NtNtNtCscZjyiejqBjN_7gittype4game7screens14loading_screenNtB5_13LoadingScreenNtNtNtBb_9extractor8progress16ProgressReporter12set_progress
FN:384,_RNvXs0_NtNtNtCscZjyiejqBjN_7gittype4game7screens14loading_screenNtB5_13LoadingScreenNtNtNtBb_9extractor8progress16ProgressReporter14update_spinner
FN:375,_RNvXs0_NtNtNtCscZjyiejqBjN_7gittype4game7screens14loading_screenNtB5_13LoadingScreenNtNtNtBb_9extractor8progress16ProgressReporter15set_file_counts
FN:371,_RNvXs0_NtNtNtCscZjyiejqBjN_7gittype4game7screens14loading_screenNtB5_13LoadingScreenNtNtNtBb_9extractor8progress16ProgressReporter16set_current_file
FN:361,_RNvXs0_NtNtNtCscZjyiejqBjN_7gittype4game7screens14loading_screenNtB5_13LoadingScreenNtNtNtBb_9extractor8progress16ProgressReporter9set_phase
FN:355,_RNvXs_NtNtNtCscZjyiejqBjN_7gittype4game7screens14loading_screenNtB4_13LoadingScreenNtNtNtCs66KPHxksi63_4core3ops4drop4Drop4drop
FNDA:0,_RNvXs_NtNtNtCs4PyLZvEkasu_7gittype4game7screens14loading_screenNtB4_13LoadingScreenNtNtNtCs66KPHxksi63_4core3ops4drop4Drop4drop
FNDA:0,_RNvMNtNtNtCs4PyLZvEkasu_7gittype4game7screens14loading_screenNtB2_13LoadingScreen10draw_phase
FNDA:0,_RNvMNtNtNtCs4PyLZvEkasu_7gittype4game7screens14loading_screenNtB2_13LoadingScreen12show_initial
FNDA:0,_RNvMNtNtNtCs4PyLZvEkasu_7gittype4game7screens14loading_screenNtB2_13LoadingScreen12update_phase
FNDA:0,_RNvMNtNtNtCs4PyLZvEkasu_7gittype4game7screens14loading_screenNtB2_13LoadingScreen13draw_progress
FNDA:0,_RNvMNtNtNtCs4PyLZvEkasu_7gittype4game7screens14loading_screenNtB2_13LoadingScreen14update_spinner
FNDA:0,_RNvMNtNtNtCs4PyLZvEkasu_7gittype4game7screens14loading_screenNtB2_13LoadingScreen15show_completion
FNDA:0,_RNvMNtNtNtCs4PyLZvEkasu_7gittype4game7screens14loading_screenNtB2_13LoadingScreen15update_progress
FNDA:0,_RNvMNtNtNtCs4PyLZvEkasu_7gittype4game7screens14loading_screenNtB2_13LoadingScreen16draw_description
FNDA:0,_RNvMNtNtNtCs4PyLZvEkasu_7gittype4game7screens14loading_screenNtB2_13LoadingScreen16render_throttled
FNDA:0,_RNvMNtNtNtCs4PyLZvEkasu_7gittype4game7screens14loading_screenNtB2_13LoadingScreen20draw_loading_message
FNDA:0,_RNvMNtNtNtCs4PyLZvEkasu_7gittype4game7screens14loading_screenNtB2_13LoadingScreen3new
FNDA:0,_RNvMNtNtNtCs4PyLZvEkasu_7gittype4game7screens14loading_screenNtB2_13LoadingScreen6render
FNDA:0,_RNvMNtNtNtCs4PyLZvEkasu_7gittype4game7screens14loading_screenNtB2_13LoadingScreen7cleanup
FNDA:0,_RNvMNtNtNtCs4PyLZvEkasu_7gittype4game7screens14loading_screenNtB2_13LoadingScreen7draw_ui
FNDA:0,_RNvXs0_NtNtNtCs4PyLZvEkasu_7gittype4game7screens14loading_screenNtB5_13LoadingScreenNtNtNtBb_9extractor8progress16ProgressReporter12set_progress
FNDA:0,_RNvXs0_NtNtNtCs4PyLZvEkasu_7gittype4game7screens14loading_screenNtB5_13LoadingScreenNtNtNtBb_9extractor8progress16ProgressReporter14update_spinner
FNDA:0,_RNvXs0_NtNtNtCs4PyLZvEkasu_7gittype4game7screens14loading_screenNtB5_13LoadingScreenNtNtNtBb_9extractor8progress16ProgressReporter15set_file_counts
FNDA:0,_RNvXs0_NtNtNtCs4PyLZvEkasu_7gittype4game7screens14loading_screenNtB5_13LoadingScreenNtNtNtBb_9extractor8progress16ProgressReporter16set_current_file
FNDA:0,_RNvXs0_NtNtNtCs4PyLZvEkasu_7gittype4game7screens14loading_screenNtB5_13LoadingScreenNtNtNtBb_9extractor8progress16ProgressReporter9set_phase
FNDA:0,_RNCNvMNtNtNtCs4PyLZvEkasu_7gittype4game7screens14loading_screenNtB4_13LoadingScreen16render_throttled0Ba_
FNDA:0,_RNCNvMNtNtNtCscZjyiejqBjN_7gittype4game7screens14loading_screenNtB4_13LoadingScreen16render_throttled0Ba_
FNDA:0,_RNvMNtNtNtCscZjyiejqBjN_7gittype4game7screens14loading_screenNtB2_13LoadingScreen10draw_phase
FNDA:0,_RNvMNtNtNtCscZjyiejqBjN_7gittype4game7screens14loading_screenNtB2_13LoadingScreen12show_initial
FNDA:0,_RNvMNtNtNtCscZjyiejqBjN_7gittype4game7screens14loading_screenNtB2_13LoadingScreen12update_phase
FNDA:0,_RNvMNtNtNtCscZjyiejqBjN_7gittype4game7screens14loading_screenNtB2_13LoadingScreen13draw_progress
FNDA:0,_RNvMNtNtNtCscZjyiejqBjN_7gittype4game7screens14loading_screenNtB2_13LoadingScreen14update_spinner
FNDA:0,_RNvMNtNtNtCscZjyiejqBjN_7gittype4game7screens14loading_screenNtB2_13LoadingScreen15show_completion
FNDA:0,_RNvMNtNtNtCscZjyiejqBjN_7gittype4game7screens14loading_screenNtB2_13LoadingScreen15update_progress
FNDA:0,_RNvMNtNtNtCscZjyiejqBjN_7gittype4game7screens14loading_screenNtB2_13LoadingScreen16draw_description
FNDA:0,_RNvMNtNtNtCscZjyiejqBjN_7gittype4game7screens14loading_screenNtB2_13LoadingScreen16render_throttled
FNDA:0,_RNvMNtNtNtCscZjyiejqBjN_7gittype4game7screens14loading_screenNtB2_13LoadingScreen20draw_loading_message
FNDA:0,_RNvMNtNtNtCscZjyiejqBjN_7gittype4game7screens14loading_screenNtB2_13LoadingScreen3new
FNDA:0,_RNvMNtNtNtCscZjyiejqBjN_7gittype4game7screens14loading_screenNtB2_13LoadingScreen6render
FNDA:0,_RNvMNtNtNtCscZjyiejqBjN_7gittype4game7screens14loading_screenNtB2_13LoadingScreen7cleanup
FNDA:0,_RNvMNtNtNtCscZjyiejqBjN_7gittype4game7screens14loading_screenNtB2_13LoadingScreen7draw_ui
FNDA:0,_RNvXs0_NtNtNtCscZjyiejqBjN_7gittype4game7screens14loading_screenNtB5_13LoadingScreenNtNtNtBb_9extractor8progress16ProgressReporter12set_progress
FNDA:0,_RNvXs0_NtNtNtCscZjyiejqBjN_7gittype4game7screens14loading_screenNtB5_13LoadingScreenNtNtNtBb_9extractor8progress16ProgressReporter14update_spinner
FNDA:0,_RNvXs0_NtNtNtCscZjyiejqBjN_7gittype4game7screens14loading_screenNtB5_13LoadingScreenNtNtNtBb_9extractor8progress16ProgressReporter15set_file_counts
FNDA:0,_RNvXs0_NtNtNtCscZjyiejqBjN_7gittype4game7screens14loading_screenNtB5_13LoadingScreenNtNtNtBb_9extractor8progress16ProgressReporter16set_current_file
FNDA:0,_RNvXs0_NtNtNtCscZjyiejqBjN_7gittype4game7screens14loading_screenNtB5_13LoadingScreenNtNtNtBb_9extractor8progress16ProgressReporter9set_phase
FNDA:0,_RNvXs_NtNtNtCscZjyiejqBjN_7gittype4game7screens14loading_screenNtB4_13LoadingScreenNtNtNtCs66KPHxksi63_4core3ops4drop4Drop4drop
FNF:21
FNH:0
DA:35,0
DA:36,0
DA:37,0
DA:38,0
DA:39,0
DA:40,0
DA:42,0
DA:43,0
DA:44,0
DA:45,0
DA:46,0
DA:47,0
DA:48,0
DA:49,0
DA:50,0
DA:51,0
DA:52,0
DA:53,0
DA:54,0
DA:55,0
DA:57,0
DA:58,0
DA:59,0
DA:61,0
DA:62,0
DA:63,0
DA:64,0
DA:67,0
DA:68,0
DA:69,0
DA:70,0
DA:71,0
DA:72,0
DA:73,0
DA:75,0
DA:76,0
DA:79,0
DA:80,0
DA:81,0
DA:82,0
DA:84,0
DA:85,0
DA:86,0
DA:87,0
DA:89,0
DA:90,0
DA:92,0
DA:94,0
DA:100,0
DA:103,0
DA:104,0
DA:105,0
DA:106,0
DA:108,0
DA:109,0
DA:110,0
DA:113,0
DA:114,0
DA:116,0
DA:118,0
DA:119,0
DA:122,0
DA:125,0
DA:128,0
DA:130,0
DA:131,0
DA:133,0
DA:134,0
DA:135,0
DA:137,0
DA:138,0
DA:140,0
DA:141,0
DA:142,0
DA:144,0
DA:145,0
DA:146,0
DA:148,0
DA:149,0
DA:150,0
DA:151,0
DA:152,0
DA:154,0
DA:155,0
DA:158,0
DA:159,0
DA:162,0
DA:163,0
DA:164,0
DA:165,0
DA:166,0
DA:167,0
DA:168,0
DA:169,0
DA:172,0
DA:173,0
DA:174,0
DA:175,0
DA:176,0
DA:177,0
DA:178,0
DA:179,0
DA:180,0
DA:183,0
DA:186,0
DA:189,0
DA:192,0
DA:193,0
DA:195,0
DA:196,0
DA:197,0
DA:198,0
DA:200,0
DA:201,0
DA:202,0
DA:206,0
DA:208,0
DA:209,0
DA:211,0
DA:212,0
DA:215,0
DA:216,0
DA:217,0
DA:218,0
DA:219,0
DA:220,0
DA:221,0
DA:223,0
DA:225,0
DA:229,0
DA:230,0
DA:231,0
DA:232,0
DA:233,0
DA:234,0
DA:236,0
DA:239,0
DA:240,0
DA:241,0
DA:242,0
DA:243,0
DA:244,0
DA:246,0
DA:252,0
DA:254,0
DA:255,0
DA:257,0
DA:258,0
DA:259,0
DA:261,0
DA:262,0
DA:263,0
DA:265,0
DA:266,0
DA:268,0
DA:269,0
DA:270,0
DA:271,0
DA:274,0
DA:275,0
DA:276,0
DA:277,0
DA:278,0
DA:279,0
DA:281,0
DA:285,0
DA:287,0
DA:288,0
DA:290,0
DA:291,0
DA:292,0
DA:293,0
DA:294,0
DA:296,0
DA:297,0
DA:298,0
DA:301,0
DA:302,0
DA:304,0
DA:305,0
DA:307,0
DA:313,0
DA:314,0
DA:315,0
DA:316,0
DA:317,0
DA:318,0
DA:319,0
DA:322,0
DA:323,0
DA:324,0
DA:325,0
DA:327,0
DA:330,0
DA:331,0
DA:332,0
DA:335,0
DA:337,0
DA:338,0
DA:340,0
DA:341,0
DA:342,0
DA:343,0
DA:344,0
DA:346,0
DA:347,0
DA:348,0
DA:349,0
DA:350,0
DA:351,0
DA:355,0
DA:356,0
DA:357,0
DA:361,0
DA:362,0
DA:363,0
DA:365,0
DA:366,0
DA:367,0
DA:368,0
DA:369,0
DA:371,0
DA:373,0
DA:375,0
DA:376,0
DA:377,0
DA:379,0
DA:381,0
DA:382,0
DA:384,0
DA:385,0
DA:386,0
BRF:0
BRH:0
LF:233
LH:0
end_of_record
SF:/home/owner/.ghq/github.com/unhappychoice/gittype/src/game/screens/result_screen.rs
FN:303,_RNCNvMNtNtNtCs4PyLZvEkasu_7gittype4game7screens13result_screenNtB4_12ResultScreen29show_session_summary_original0Ba_
FN:415,_RNCNvMNtNtNtCs4PyLZvEkasu_7gittype4game7screens13result_screenNtB4_12ResultScreen29show_session_summary_originals18_0Ba_
FN:304,_RNCNvMNtNtNtCs4PyLZvEkasu_7gittype4game7screens13result_screenNtB4_12ResultScreen29show_session_summary_originals_0Ba_
FN:303,_RNCNvMNtNtNtCscZjyiejqBjN_7gittype4game7screens13result_screenNtB4_12ResultScreen29show_session_summary_original0Ba_
FN:415,_RNCNvMNtNtNtCscZjyiejqBjN_7gittype4game7screens13result_screenNtB4_12ResultScreen29show_session_summary_originals18_0Ba_
FN:304,_RNCNvMNtNtNtCscZjyiejqBjN_7gittype4game7screens13result_screenNtB4_12ResultScreen29show_session_summary_originals_0Ba_
FN:639,_RNvMNtNtNtCscZjyiejqBjN_7gittype4game7screens13result_screenNtB2_12ResultScreen17show_sharing_menu
FN:50,_RNvMNtNtNtCscZjyiejqBjN_7gittype4game7screens13result_screenNtB2_12ResultScreen20create_ascii_numbers
FN:262,_RNvMNtNtNtCscZjyiejqBjN_7gittype4game7screens13result_screenNtB2_12ResultScreen20show_session_summary
FN:68,_RNvMNtNtNtCscZjyiejqBjN_7gittype4game7screens13result_screenNtB2_12ResultScreen21show_stage_completion
FN:27,_RNvMNtNtNtCscZjyiejqBjN_7gittype4game7screens13result_screenNtB2_12ResultScreen23calculate_display_width
FN:276,_RNvMNtNtNtCscZjyiejqBjN_7gittype4game7screens13result_screenNtB2_12ResultScreen29show_session_summary_original
FN:559,_RNvMNtNtNtCscZjyiejqBjN_7gittype4game7screens13result_screenNtB2_12ResultScreen30show_session_summary_fail_mode
FN:488,_RNvMNtNtNtCscZjyiejqBjN_7gittype4game7screens13result_screenNtB2_12ResultScreen31show_session_summary_with_input
FN:514,_RNvMNtNtNtCscZjyiejqBjN_7gittype4game7screens13result_screenNtB2_12ResultScreen40show_session_summary_with_input_internal
FN:501,_RNvMNtNtNtCscZjyiejqBjN_7gittype4game7screens13result_screenNtB2_12ResultScreen44show_session_summary_with_input_no_animation
FN:639,_RNvMNtNtNtCs4PyLZvEkasu_7gittype4game7screens13result_screenNtB2_12ResultScreen17show_sharing_menu
FN:50,_RNvMNtNtNtCs4PyLZvEkasu_7gittype4game7screens13result_screenNtB2_12ResultScreen20create_ascii_numbers
FN:262,_RNvMNtNtNtCs4PyLZvEkasu_7gittype4game7screens13result_screenNtB2_12ResultScreen20show_session_summary
FN:68,_RNvMNtNtNtCs4PyLZvEkasu_7gittype4game7screens13result_screenNtB2_12ResultScreen21show_stage_completion
FN:27,_RNvMNtNtNtCs4PyLZvEkasu_7gittype4game7screens13result_screenNtB2_12ResultScreen23calculate_display_width
FN:276,_RNvMNtNtNtCs4PyLZvEkasu_7gittype4game7screens13result_screenNtB2_12ResultScreen29show_session_summary_original
FN:559,_RNvMNtNtNtCs4PyLZvEkasu_7gittype4game7screens13result_screenNtB2_12ResultScreen30show_session_summary_fail_mode
FN:488,_RNvMNtNtNtCs4PyLZvEkasu_7gittype4game7screens13result_screenNtB2_12ResultScreen31show_session_summary_with_input
FN:514,_RNvMNtNtNtCs4PyLZvEkasu_7gittype4game7screens13result_screenNtB2_12ResultScreen40show_session_summary_with_input_internal
FN:501,_RNvMNtNtNtCs4PyLZvEkasu_7gittype4game7screens13result_screenNtB2_12ResultScreen44show_session_summary_with_input_no_animation
FNDA:0,_RNCNvMNtNtNtCs4PyLZvEkasu_7gittype4game7screens13result_screenNtB4_12ResultScreen29show_session_summary_original0Ba_
FNDA:0,_RNCNvMNtNtNtCs4PyLZvEkasu_7gittype4game7screens13result_screenNtB4_12ResultScreen29show_session_summary_originals18_0Ba_
FNDA:0,_RNCNvMNtNtNtCs4PyLZvEkasu_7gittype4game7screens13result_screenNtB4_12ResultScreen29show_session_summary_originals_0Ba_
FNDA:0,_RNCNvMNtNtNtCscZjyiejqBjN_7gittype4game7screens13result_screenNtB4_12ResultScreen29show_session_summary_original0Ba_
FNDA:0,_RNCNvMNtNtNtCscZjyiejqBjN_7gittype4game7screens13result_screenNtB4_12ResultScreen29show_session_summary_originals18_0Ba_
FNDA:0,_RNCNvMNtNtNtCscZjyiejqBjN_7gittype4game7screens13result_screenNtB4_12ResultScreen29show_session_summary_originals_0Ba_
FNDA:0,_RNvMNtNtNtCscZjyiejqBjN_7gittype4game7screens13result_screenNtB2_12ResultScreen17show_sharing_menu
FNDA:0,_RNvMNtNtNtCscZjyiejqBjN_7gittype4game7screens13result_screenNtB2_12ResultScreen20create_ascii_numbers
FNDA:0,_RNvMNtNtNtCscZjyiejqBjN_7gittype4game7screens13result_screenNtB2_12ResultScreen20show_session_summary
FNDA:0,_RNvMNtNtNtCscZjyiejqBjN_7gittype4game7screens13result_screenNtB2_12ResultScreen21show_stage_completion
FNDA:0,_RNvMNtNtNtCscZjyiejqBjN_7gittype4game7screens13result_screenNtB2_12ResultScreen23calculate_display_width
FNDA:0,_RNvMNtNtNtCscZjyiejqBjN_7gittype4game7screens13result_screenNtB2_12ResultScreen29show_session_summary_original
FNDA:0,_RNvMNtNtNtCscZjyiejqBjN_7gittype4game7screens13result_screenNtB2_12ResultScreen30show_session_summary_fail_mode
FNDA:0,_RNvMNtNtNtCscZjyiejqBjN_7gittype4game7screens13result_screenNtB2_12ResultScreen31show_session_summary_with_input
FNDA:0,_RNvMNtNtNtCscZjyiejqBjN_7gittype4game7screens13result_screenNtB2_12ResultScreen40show_session_summary_with_input_internal
FNDA:0,_RNvMNtNtNtCscZjyiejqBjN_7gittype4game7screens13result_screenNtB2_12ResultScreen44show_session_summary_with_input_no_animation
FNDA:0,_RNvMNtNtNtCs4PyLZvEkasu_7gittype4game7screens13result_screenNtB2_12ResultScreen17show_sharing_menu
FNDA:0,_RNvMNtNtNtCs4PyLZvEkasu_7gittype4game7screens13result_screenNtB2_12ResultScreen20create_ascii_numbers
FNDA:0,_RNvMNtNtNtCs4PyLZvEkasu_7gittype4game7screens13result_screenNtB2_12ResultScreen20show_session_summary
FNDA:0,_RNvMNtNtNtCs4PyLZvEkasu_7gittype4game7screens13result_screenNtB2_12ResultScreen21show_stage_completion
FNDA:0,_RNvMNtNtNtCs4PyLZvEkasu_7gittype4game7screens13result_screenNtB2_12ResultScreen23calculate_display_width
FNDA:0,_RNvMNtNtNtCs4PyLZvEkasu_7gittype4game7screens13result_screenNtB2_12ResultScreen29show_session_summary_original
FNDA:0,_RNvMNtNtNtCs4PyLZvEkasu_7gittype4game7screens13result_screenNtB2_12ResultScreen30show_session_summary_fail_mode
FNDA:0,_RNvMNtNtNtCs4PyLZvEkasu_7gittype4game7screens13result_screenNtB2_12ResultScreen31show_session_summary_with_input
FNDA:0,_RNvMNtNtNtCs4PyLZvEkasu_7gittype4game7screens13result_screenNtB2_12ResultScreen40show_session_summary_with_input_internal
FNDA:0,_RNvMNtNtNtCs4PyLZvEkasu_7gittype4game7screens13result_screenNtB2_12ResultScreen44show_session_summary_with_input_no_animation
FNF:13
FNH:0
DA:27,0
DA:28,0
DA:29,0
DA:31,0
DA:32,0
DA:34,0
DA:35,0
DA:36,0
DA:37,0
DA:38,0
DA:39,0
DA:41,0
DA:42,0
DA:43,0
DA:44,0
DA:47,0
DA:48,0
DA:50,0
DA:51,0
DA:52,0
DA:53,0
DA:55,0
DA:56,0
DA:57,0
DA:58,0
DA:59,0
DA:60,0
DA:61,0
DA:62,0
DA:65,0
DA:66,0
DA:68,0
DA:69,0
DA:70,0
DA:71,0
DA:72,0
DA:73,0
DA:74,0
DA:75,0
DA:78,0
DA:79,0
DA:80,0
DA:81,0
DA:84,0
DA:86,0
DA:87,0
DA:88,0
DA:91,0
DA:92,0
DA:93,0
DA:94,0
DA:96,0
DA:100,0
DA:102,0
DA:103,0
DA:104,0
DA:105,0
DA:106,0
DA:107,0
DA:109,0
DA:111,0
DA:112,0
DA:115,0
DA:118,0
DA:119,0
DA:120,0
DA:121,0
DA:122,0
DA:123,0
DA:126,0
DA:127,0
DA:128,0
DA:129,0
DA:130,0
DA:131,0
DA:132,0
DA:133,0
DA:134,0
DA:137,0
DA:138,0
DA:139,0
DA:142,0
DA:143,0
DA:144,0
DA:145,0
DA:146,0
DA:149,0
DA:150,0
DA:151,0
DA:155,0
DA:156,0
DA:158,0
DA:160,0
DA:161,0
DA:163,0
DA:164,0
DA:165,0
DA:166,0
DA:167,0
DA:168,0
DA:169,0
DA:170,0
DA:172,0
DA:174,0
DA:175,0
DA:179,0
DA:180,0
DA:183,0
DA:184,0
DA:185,0
DA:186,0
DA:187,0
DA:188,0
DA:189,0
DA:190,0
DA:191,0
DA:192,0
DA:193,0
DA:194,0
DA:196,0
DA:197,0
DA:198,0
DA:199,0
DA:200,0
DA:201,0
DA:205,0
DA:208,0
DA:209,0
DA:210,0
DA:211,0
DA:212,0
DA:213,0
DA:214,0
DA:216,0
DA:217,0
DA:218,0
DA:219,0
DA:220,0
DA:221,0
DA:222,0
DA:224,0
DA:227,0
DA:228,0
DA:229,0
DA:230,0
DA:232,0
DA:234,0
DA:235,0
DA:236,0
DA:237,0
DA:238,0
DA:242,0
DA:243,0
DA:244,0
DA:245,0
DA:248,0
DA:252,0
DA:254,0
DA:256,0
DA:257,0
DA:259,0
DA:260,0
DA:262,0
DA:263,0
DA:264,0
DA:265,0
DA:266,0
DA:270,0
DA:273,0
DA:274,0
DA:276,0
DA:277,0
DA:278,0
DA:279,0
DA:280,0
DA:281,0
DA:284,0
DA:285,0
DA:286,0
DA:287,0
DA:290,0
DA:292,0
DA:293,0
DA:294,0
DA:297,0
DA:298,0
DA:299,0
DA:301,0
DA:302,0
DA:303,0
DA:304,0
DA:305,0
DA:307,0
DA:308,0
DA:311,0
DA:316,0
DA:317,0
DA:320,0
DA:321,0
DA:322,0
DA:324,0
DA:328,0
DA:329,0
DA:331,0
DA:332,0
DA:333,0
DA:334,0
DA:336,0
DA:337,0
DA:338,0
DA:341,0
DA:342,0
DA:343,0
DA:347,0
DA:348,0
DA:349,0
DA:350,0
DA:351,0
DA:354,0
DA:355,0
DA:356,0
DA:358,0
DA:360,0
DA:361,0
DA:362,0
DA:363,0
DA:364,0
DA:368,0
DA:371,0
DA:372,0
DA:373,0
DA:374,0
DA:375,0
DA:378,0
DA:379,0
DA:380,0
DA:383,0
DA:384,0
DA:385,0
DA:387,0
DA:388,0
DA:389,0
DA:390,0
DA:391,0
DA:394,0
DA:395,0
DA:396,0
DA:400,0
DA:401,0
DA:404,0
DA:405,0
DA:406,0
DA:409,0
DA:411,0
DA:412,0
DA:413,0
DA:414,0
DA:415,0
DA:416,0
DA:422,0
DA:423,0
DA:424,0
DA:425,0
DA:426,0
DA:427,0
DA:431,0
DA:432,0
DA:434,0
DA:435,0
DA:436,0
DA:437,0
DA:438,0
DA:439,0
DA:441,0
DA:442,0
DA:443,0
DA:445,0
DA:446,0
DA:447,0
DA:449,0
DA:450,0
DA:451,0
DA:453,0
DA:454,0
DA:455,0
DA:456,0
DA:458,0
DA:461,0
DA:462,0
DA:463,0
DA:464,0
DA:465,0
DA:466,0
DA:468,0
DA:469,0
DA:470,0
DA:472,0
DA:475,0
DA:476,0
DA:477,0
DA:478,0
DA:479,0
DA:480,0
DA:483,0
DA:485,0
DA:486,0
DA:488,0
DA:489,0
DA:490,0
DA:491,0
DA:492,0
DA:493,0
DA:494,0
DA:495,0
DA:496,0
DA:499,0
DA:501,0
DA:502,0
DA:503,0
DA:504,0
DA:505,0
DA:506,0
DA:507,0
DA:508,0
DA:509,0
DA:512,0
DA:514,0
DA:515,0
DA:516,0
DA:517,0
DA:518,0
DA:519,0
DA:523,0
DA:524,0
DA:525,0
DA:528,0
DA:532,0
DA:533,0
DA:534,0
DA:536,0
DA:539,0
DA:542,0
DA:545,0
DA:548,0
DA:550,0
DA:552,0
DA:554,0
DA:555,0
DA:557,0
DA:559,0
DA:560,0
DA:561,0
DA:562,0
DA:563,0
DA:564,0
DA:567,0
DA:568,0
DA:569,0
DA:570,0
DA:573,0
DA:575,0
DA:576,0
DA:579,0
DA:580,0
DA:582,0
DA:583,0
DA:584,0
DA:585,0
DA:587,0
DA:588,0
DA:589,0
DA:592,0
DA:593,0
DA:594,0
DA:598,0
DA:599,0
DA:600,0
DA:601,0
DA:602,0
DA:605,0
DA:606,0
DA:607,0
DA:608,0
DA:609,0
DA:611,0
DA:612,0
DA:615,0
DA:616,0
DA:617,0
DA:618,0
DA:619,0
DA:622,0
DA:623,0
DA:624,0
DA:625,0
DA:626,0
DA:629,0
DA:630,0
DA:631,0
DA:632,0
DA:633,0
DA:635,0
DA:636,0
DA:637,0
DA:639,0
DA:640,0
DA:643,0
DA:644,0
DA:645,0
DA:646,0
DA:649,0
DA:651,0
DA:652,0
DA:653,0
DA:656,0
DA:657,0
DA:659,0
DA:660,0
DA:661,0
DA:662,0
DA:664,0
DA:665,0
DA:666,0
DA:669,0
DA:670,0
DA:671,0
DA:675,0
DA:676,0
DA:679,0
DA:680,0
DA:681,0
DA:682,0
DA:683,0
DA:686,0
DA:687,0
DA:689,0
DA:690,0
DA:691,0
DA:692,0
DA:693,0
DA:694,0
DA:695,0
DA:699,0
DA:700,0
DA:701,0
DA:702,0
DA:704,0
DA:705,0
DA:706,0
DA:707,0
DA:709,0
DA:713,0
DA:714,0
DA:715,0
DA:717,0
DA:718,0
DA:721,0
DA:722,0
DA:726,0
DA:727,0
DA:731,0
DA:732,0
DA:734,0
DA:736,0
DA:738,0
DA:740,0
DA:742,0
DA:743,0
DA:746,0
DA:747,0
BRF:0
BRH:0
LF:473
LH:0
end_of_record
SF:/home/owner/.ghq/github.com/unhappychoice/gittype/src/game/screens/title_screen.rs
FN:276,_RNCNvMNtNtNtCs4PyLZvEkasu_7gittype4game7screens12title_screenNtB4_11TitleScreen13draw_git_info0Ba_
FN:276,_RNCNvMNtNtNtCscZjyiejqBjN_7gittype4game7screens12title_screenNtB4_11TitleScreen13draw_git_info0Ba_
FN:250,_RNvMNtNtNtCscZjyiejqBjN_7gittype4game7screens12title_screenNtB2_11TitleScreen13draw_git_info
FN:290,_RNvMNtNtNtCscZjyiejqBjN_7gittype4game7screens12title_screenNtB2_11TitleScreen18handle_info_dialog
FN:126,_RNvMNtNtNtCscZjyiejqBjN_7gittype4game7screens12title_screenNtB2_11TitleScreen20draw_static_elements
FN:187,_RNvMNtNtNtCscZjyiejqBjN_7gittype4game7screens12title_screenNtB2_11TitleScreen25draw_difficulty_selection
FN:28,_RNvMNtNtNtCscZjyiejqBjN_7gittype4game7screens12title_screenNtB2_11TitleScreen26show_with_challenge_counts
FN:32,_RNvMNtNtNtCscZjyiejqBjN_7gittype4game7screens12title_screenNtB2_11TitleScreen39show_with_challenge_counts_and_git_info
FN:22,_RNvMNtNtNtCscZjyiejqBjN_7gittype4game7screens12title_screenNtB2_11TitleScreen4show
FN:250,_RNvMNtNtNtCs4PyLZvEkasu_7gittype4game7screens12title_screenNtB2_11TitleScreen13draw_git_info
FN:290,_RNvMNtNtNtCs4PyLZvEkasu_7gittype4game7screens12title_screenNtB2_11TitleScreen18handle_info_dialog
FN:126,_RNvMNtNtNtCs4PyLZvEkasu_7gittype4game7screens12title_screenNtB2_11TitleScreen20draw_static_elements
FN:187,_RNvMNtNtNtCs4PyLZvEkasu_7gittype4game7screens12title_screenNtB2_11TitleScreen25draw_difficulty_selection
FN:28,_RNvMNtNtNtCs4PyLZvEkasu_7gittype4game7screens12title_screenNtB2_11TitleScreen26show_with_challenge_counts
FN:32,_RNvMNtNtNtCs4PyLZvEkasu_7gittype4game7screens12title_screenNtB2_11TitleScreen39show_with_challenge_counts_and_git_info
FN:22,_RNvMNtNtNtCs4PyLZvEkasu_7gittype4game7screens12title_screenNtB2_11TitleScreen4show
FNDA:0,_RNCNvMNtNtNtCs4PyLZvEkasu_7gittype4game7screens12title_screenNtB4_11TitleScreen13draw_git_info0Ba_
FNDA:0,_RNCNvMNtNtNtCscZjyiejqBjN_7gittype4game7screens12title_screenNtB4_11TitleScreen13draw_git_info0Ba_
FNDA:0,_RNvMNtNtNtCscZjyiejqBjN_7gittype4game7screens12title_screenNtB2_11TitleScreen13draw_git_info
FNDA:0,_RNvMNtNtNtCscZjyiejqBjN_7gittype4game7screens12title_screenNtB2_11TitleScreen18handle_info_dialog
FNDA:0,_RNvMNtNtNtCscZjyiejqBjN_7gittype4game7screens12title_screenNtB2_11TitleScreen20draw_static_elements
FNDA:0,_RNvMNtNtNtCscZjyiejqBjN_7gittype4game7screens12title_screenNtB2_11TitleScreen25draw_difficulty_selection
FNDA:0,_RNvMNtNtNtCscZjyiejqBjN_7gittype4game7screens12title_screenNtB2_11TitleScreen26show_with_challenge_counts
FNDA:0,_RNvMNtNtNtCscZjyiejqBjN_7gittype4game7screens12title_screenNtB2_11TitleScreen39show_with_challenge_counts_and_git_info
FNDA:0,_RNvMNtNtNtCscZjyiejqBjN_7gittype4game7screens12title_screenNtB2_11TitleScreen4show
FNDA:0,_RNvMNtNtNtCs4PyLZvEkasu_7gittype4game7screens12title_screenNtB2_11TitleScreen13draw_git_info
FNDA:0,_RNvMNtNtNtCs4PyLZvEkasu_7gittype4game7screens12title_screenNtB2_11TitleScreen18handle_info_dialog
FNDA:0,_RNvMNtNtNtCs4PyLZvEkasu_7gittype4game7screens12title_screenNtB2_11TitleScreen20draw_static_elements
FNDA:0,_RNvMNtNtNtCs4PyLZvEkasu_7gittype4game7screens12title_screenNtB2_11TitleScreen25draw_difficulty_selection
FNDA:0,_RNvMNtNtNtCs4PyLZvEkasu_7gittype4game7screens12title_screenNtB2_11TitleScreen26show_with_challenge_counts
FNDA:0,_RNvMNtNtNtCs4PyLZvEkasu_7gittype4game7screens12title_screenNtB2_11TitleScreen39show_with_challenge_counts_and_git_info
FNDA:0,_RNvMNtNtNtCs4PyLZvEkasu_7gittype4game7screens12title_screenNtB2_11TitleScreen4show
FNF:8
FNH:0
DA:22,0
DA:24,0
DA:25,0
DA:26,0
DA:28,0
DA:29,0
DA:30,0
DA:32,0
DA:33,0
DA:34,0
DA:35,0
DA:36,0
DA:37,0
DA:38,0
DA:39,0
DA:40,0
DA:41,0
DA:42,0
DA:43,0
DA:45,0
DA:46,0
DA:48,0
DA:49,0
DA:50,0
DA:53,0
DA:55,0
DA:57,0
DA:58,0
DA:59,0
DA:60,0
DA:61,0
DA:62,0
DA:63,0
DA:64,0
DA:65,0
DA:69,0
DA:70,0
DA:71,0
DA:72,0
DA:73,0
DA:74,0
DA:75,0
DA:76,0
DA:77,0
DA:78,0
DA:79,0
DA:80,0
DA:83,0
DA:84,0
DA:85,0
DA:87,0
DA:88,0
DA:89,0
DA:92,0
DA:93,0
DA:95,0
DA:98,0
DA:99,0
DA:100,0
DA:101,0
DA:103,0
DA:105,0
DA:108,0
DA:110,0
DA:111,0
DA:112,0
DA:113,0
DA:114,0
DA:115,0
DA:116,0
DA:117,0
DA:119,0
DA:121,0
DA:122,0
DA:124,0
DA:126,0
DA:127,0
DA:128,0
DA:129,0
DA:130,0
DA:131,0
DA:133,0
DA:134,0
DA:135,0
DA:136,0
DA:137,0
DA:138,0
DA:139,0
DA:140,0
DA:143,0
DA:144,0
DA:145,0
DA:147,0
DA:148,0
DA:149,0
DA:150,0
DA:153,0
DA:154,0
DA:155,0
DA:159,0
DA:160,0
DA:161,0
DA:162,0
DA:163,0
DA:164,0
DA:167,0
DA:168,0
DA:170,0
DA:171,0
DA:172,0
DA:173,0
DA:174,0
DA:175,0
DA:176,0
DA:177,0
DA:178,0
DA:179,0
DA:182,0
DA:184,0
DA:185,0
DA:187,0
DA:188,0
DA:189,0
DA:190,0
DA:191,0
DA:192,0
DA:193,0
DA:194,0
DA:195,0
DA:196,0
DA:197,0
DA:200,0
DA:201,0
DA:202,0
DA:206,0
DA:207,0
DA:209,0
DA:210,0
DA:211,0
DA:212,0
DA:213,0
DA:214,0
DA:215,0
DA:218,0
DA:219,0
DA:220,0
DA:221,0
DA:222,0
DA:225,0
DA:226,0
DA:228,0
DA:230,0
DA:232,0
DA:233,0
DA:234,0
DA:235,0
DA:238,0
DA:239,0
DA:240,0
DA:241,0
DA:242,0
DA:243,0
DA:244,0
DA:247,0
DA:248,0
DA:250,0
DA:251,0
DA:252,0
DA:253,0
DA:254,0
DA:255,0
DA:256,0
DA:259,0
DA:261,0
DA:262,0
DA:263,0
DA:265,0
DA:266,0
DA:267,0
DA:269,0
DA:270,0
DA:272,0
DA:276,0
DA:277,0
DA:280,0
DA:282,0
DA:283,0
DA:284,0
DA:285,0
DA:286,0
DA:287,0
DA:288,0
DA:290,0
DA:291,0
DA:293,0
DA:296,0
DA:298,0
DA:299,0
DA:300,0
DA:302,0
DA:303,0
BRF:0
BRH:0
LF:202
LH:0
end_of_record
SF:/home/owner/.ghq/github.com/unhappychoice/gittype/src/game/screens/typing_screen.rs
FN:298,_RNvMNtNtNtCscZjyiejqBjN_7gittype4game7screens13typing_screenNtB2_12TypingScreen10handle_key
FN:503,_RNvMNtNtNtCscZjyiejqBjN_7gittype4game7screens13typing_screenNtB2_12TypingScreen10was_failed
FN:498,_RNvMNtNtNtCscZjyiejqBjN_7gittype4game7screens13typing_screenNtB2_12TypingScreen11was_skipped
FN:119,_RNvMNtNtNtCscZjyiejqBjN_7gittype4game7screens13typing_screenNtB2_12TypingScreen13start_session
FN:427,_RNvMNtNtNtCscZjyiejqBjN_7gittype4game7screens13typing_screenNtB2_12TypingScreen14update_display
FN:255,_RNvMNtNtNtCscZjyiejqBjN_7gittype4game7screens13typing_screenNtB2_12TypingScreen15show_with_state
FN:470,_RNvMNtNtNtCscZjyiejqBjN_7gittype4game7screens13typing_screenNtB2_12TypingScreen17calculate_metrics
FN:486,_RNvMNtNtNtCscZjyiejqBjN_7gittype4game7screens13typing_screenNtB2_12TypingScreen18get_scoring_engine
FN:80,_RNvMNtNtNtCscZjyiejqBjN_7gittype4game7screens13typing_screenNtB2_12TypingScreen18new_with_challenge
FN:490,_RNvMNtNtNtCscZjyiejqBjN_7gittype4game7screens13typing_screenNtB2_12TypingScreen19get_skips_remaining
FN:494,_RNvMNtNtNtCscZjyiejqBjN_7gittype4game7screens13typing_screenNtB2_12TypingScreen19set_skips_remaining
FN:452,_RNvMNtNtNtCscZjyiejqBjN_7gittype4game7screens13typing_screenNtB2_12TypingScreen20advance_to_next_line
FN:508,_RNvMNtNtNtCscZjyiejqBjN_7gittype4game7screens13typing_screenNtB2_12TypingScreen22handle_character_input
FN:443,_RNvMNtNtNtCscZjyiejqBjN_7gittype4game7screens13typing_screenNtB2_12TypingScreen25is_at_end_of_line_content
FN:478,_RNvMNtNtNtCscZjyiejqBjN_7gittype4game7screens13typing_screenNtB2_12TypingScreen28calculate_metrics_with_state
FN:534,_RNvMNtNtNtCscZjyiejqBjN_7gittype4game7screens13typing_screenNtB2_12TypingScreen34advance_to_next_typeable_character
FN:47,_RNvMNtNtNtCscZjyiejqBjN_7gittype4game7screens13typing_screenNtB2_12TypingScreen3new
FN:203,_RNvMNtNtNtCscZjyiejqBjN_7gittype4game7screens13typing_screenNtB2_12TypingScreen4show
FN:298,_RNvMNtNtNtCs4PyLZvEkasu_7gittype4game7screens13typing_screenNtB2_12TypingScreen10handle_key
FN:503,_RNvMNtNtNtCs4PyLZvEkasu_7gittype4game7screens13typing_screenNtB2_12TypingScreen10was_failed
FN:498,_RNvMNtNtNtCs4PyLZvEkasu_7gittype4game7screens13typing_screenNtB2_12TypingScreen11was_skipped
FN:119,_RNvMNtNtNtCs4PyLZvEkasu_7gittype4game7screens13typing_screenNtB2_12TypingScreen13start_session
FN:427,_RNvMNtNtNtCs4PyLZvEkasu_7gittype4game7screens13typing_screenNtB2_12TypingScreen14update_display
FN:255,_RNvMNtNtNtCs4PyLZvEkasu_7gittype4game7screens13typing_screenNtB2_12TypingScreen15show_with_state
FN:470,_RNvMNtNtNtCs4PyLZvEkasu_7gittype4game7screens13typing_screenNtB2_12TypingScreen17calculate_metrics
FN:486,_RNvMNtNtNtCs4PyLZvEkasu_7gittype4game7screens13typing_screenNtB2_12TypingScreen18get_scoring_engine
FN:80,_RNvMNtNtNtCs4PyLZvEkasu_7gittype4game7screens13typing_screenNtB2_12TypingScreen18new_with_challenge
FN:490,_RNvMNtNtNtCs4PyLZvEkasu_7gittype4game7screens13typing_screenNtB2_12TypingScreen19get_skips_remaining
FN:494,_RNvMNtNtNtCs4PyLZvEkasu_7gittype4game7screens13typing_screenNtB2_12TypingScreen19set_skips_remaining
FN:452,_RNvMNtNtNtCs4PyLZvEkasu_7gittype4game7screens13typing_screenNtB2_12TypingScreen20advance_to_next_line
FN:508,_RNvMNtNtNtCs4PyLZvEkasu_7gittype4game7screens13typing_screenNtB2_12TypingScreen22handle_character_input
FN:443,_RNvMNtNtNtCs4PyLZvEkasu_7gittype4game7screens13typing_screenNtB2_12TypingScreen25is_at_end_of_line_content
FN:478,_RNvMNtNtNtCs4PyLZvEkasu_7gittype4game7screens13typing_screenNtB2_12TypingScreen28calculate_metrics_with_state
FN:534,_RNvMNtNtNtCs4PyLZvEkasu_7gittype4game7screens13typing_screenNtB2_12TypingScreen34advance_to_next_typeable_character
FN:47,_RNvMNtNtNtCs4PyLZvEkasu_7gittype4game7screens13typing_screenNtB2_12TypingScreen3new
FN:203,_RNvMNtNtNtCs4PyLZvEkasu_7gittype4game7screens13typing_screenNtB2_12TypingScreen4show
FNDA:0,_RNvMNtNtNtCscZjyiejqBjN_7gittype4game7screens13typing_screenNtB2_12TypingScreen10handle_key
FNDA:0,_RNvMNtNtNtCscZjyiejqBjN_7gittype4game7screens13typing_screenNtB2_12TypingScreen10was_failed
FNDA:0,_RNvMNtNtNtCscZjyiejqBjN_7gittype4game7screens13typing_screenNtB2_12TypingScreen11was_skipped
FNDA:0,_RNvMNtNtNtCscZjyiejqBjN_7gittype4game7screens13typing_screenNtB2_12TypingScreen13start_session
FNDA:0,_RNvMNtNtNtCscZjyiejqBjN_7gittype4game7screens13typing_screenNtB2_12TypingScreen14update_display
FNDA:0,_RNvMNtNtNtCscZjyiejqBjN_7gittype4game7screens13typing_screenNtB2_12TypingScreen15show_with_state
FNDA:0,_RNvMNtNtNtCscZjyiejqBjN_7gittype4game7screens13typing_screenNtB2_12TypingScreen17calculate_metrics
FNDA:0,_RNvMNtNtNtCscZjyiejqBjN_7gittype4game7screens13typing_screenNtB2_12TypingScreen18get_scoring_engine
FNDA:0,_RNvMNtNtNtCscZjyiejqBjN_7gittype4game7screens13typing_screenNtB2_12TypingScreen18new_with_challenge
FNDA:0,_RNvMNtNtNtCscZjyiejqBjN_7gittype4game7screens13typing_screenNtB2_12TypingScreen19get_skips_remaining
FNDA:0,_RNvMNtNtNtCscZjyiejqBjN_7gittype4game7screens13typing_screenNtB2_12TypingScreen19set_skips_remaining
FNDA:0,_RNvMNtNtNtCscZjyiejqBjN_7gittype4game7screens13typing_screenNtB2_12TypingScreen20advance_to_next_line
FNDA:0,_RNvMNtNtNtCscZjyiejqBjN_7gittype4game7screens13typing_screenNtB2_12TypingScreen22handle_character_input
FNDA:0,_RNvMNtNtNtCscZjyiejqBjN_7gittype4game7screens13typing_screenNtB2_12TypingScreen25is_at_end_of_line_content
FNDA:0,_RNvMNtNtNtCscZjyiejqBjN_7gittype4game7screens13typing_screenNtB2_12TypingScreen28calculate_metrics_with_state
FNDA:0,_RNvMNtNtNtCscZjyiejqBjN_7gittype4game7screens13typing_screenNtB2_12TypingScreen34advance_to_next_typeable_character
FNDA:0,_RNvMNtNtNtCscZjyiejqBjN_7gittype4game7screens13typing_screenNtB2_12TypingScreen3new
FNDA:0,_RNvMNtNtNtCscZjyiejqBjN_7gittype4game7screens13typing_screenNtB2_12TypingScreen4show
FNDA:0,_RNvMNtNtNtCs4PyLZvEkasu_7gittype4game7screens13typing_screenNtB2_12TypingScreen10handle_key
FNDA:0,_RNvMNtNtNtCs4PyLZvEkasu_7gittype4game7screens13typing_screenNtB2_12TypingScreen10was_failed
FNDA:0,_RNvMNtNtNtCs4PyLZvEkasu_7gittype4game7screens13typing_screenNtB2_12TypingScreen11was_skipped
FNDA:0,_RNvMNtNtNtCs4PyLZvEkasu_7gittype4game7screens13typing_screenNtB2_12TypingScreen13start_session
FNDA:0,_RNvMNtNtNtCs4PyLZvEkasu_7gittype4game7screens13typing_screenNtB2_12TypingScreen14update_display
FNDA:0,_RNvMNtNtNtCs4PyLZvEkasu_7gittype4game7screens13typing_screenNtB2_12TypingScreen15show_with_state
FNDA:0,_RNvMNtNtNtCs4PyLZvEkasu_7gittype4game7screens13typing_screenNtB2_12TypingScreen17calculate_metrics
FNDA:0,_RNvMNtNtNtCs4PyLZvEkasu_7gittype4game7screens13typing_screenNtB2_12TypingScreen18get_scoring_engine
FNDA:0,_RNvMNtNtNtCs4PyLZvEkasu_7gittype4game7screens13typing_screenNtB2_12TypingScreen18new_with_challenge
FNDA:0,_RNvMNtNtNtCs4PyLZvEkasu_7gittype4game7screens13typing_screenNtB2_12TypingScreen19get_skips_remaining
FNDA:0,_RNvMNtNtNtCs4PyLZvEkasu_7gittype4game7screens13typing_screenNtB2_12TypingScreen19set_skips_remaining
FNDA:0,_RNvMNtNtNtCs4PyLZvEkasu_7gittype4game7screens13typing_screenNtB2_12TypingScreen20advance_to_next_line
FNDA:0,_RNvMNtNtNtCs4PyLZvEkasu_7gittype4game7screens13typing_screenNtB2_12TypingScreen22handle_character_input
FNDA:0,_RNvMNtNtNtCs4PyLZvEkasu_7gittype4game7screens13typing_screenNtB2_12TypingScreen25is_at_end_of_line_content
FNDA:0,_RNvMNtNtNtCs4PyLZvEkasu_7gittype4game7screens13typing_screenNtB2_12TypingScreen28calculate_metrics_with_state
FNDA:0,_RNvMNtNtNtCs4PyLZvEkasu_7gittype4game7screens13typing_screenNtB2_12TypingScreen34advance_to_next_typeable_character
FNDA:0,_RNvMNtNtNtCs4PyLZvEkasu_7gittype4game7screens13typing_screenNtB2_12TypingScreen3new
FNDA:0,_RNvMNtNtNtCs4PyLZvEkasu_7gittype4game7screens13typing_screenNtB2_12TypingScreen4show
FNF:18
FNH:0
DA:47,0
DA:48,0
DA:49,0
DA:50,0
DA:51,0
DA:52,0
DA:53,0
DA:55,0
DA:57,0
DA:58,0
DA:59,0
DA:61,0
DA:62,0
DA:63,0
DA:64,0
DA:65,0
DA:66,0
DA:67,0
DA:68,0
DA:69,0
DA:70,0
DA:71,0
DA:72,0
DA:73,0
DA:74,0
DA:75,0
DA:76,0
DA:77,0
DA:78,0
DA:80,0
DA:83,0
DA:84,0
DA:85,0
DA:86,0
DA:87,0
DA:89,0
DA:90,0
DA:91,0
DA:92,0
DA:94,0
DA:96,0
DA:97,0
DA:98,0
DA:100,0
DA:101,0
DA:102,0
DA:103,0
DA:104,0
DA:105,0
DA:106,0
DA:107,0
DA:108,0
DA:109,0
DA:110,0
DA:111,0
DA:112,0
DA:113,0
DA:114,0
DA:115,0
DA:116,0
DA:117,0
DA:119,0
DA:120,0
DA:121,0
DA:122,0
DA:123,0
DA:124,0
DA:125,0
DA:126,0
DA:131,0
DA:132,0
DA:133,0
DA:140,0
DA:143,0
DA:146,0
DA:148,0
DA:149,0
DA:150,0
DA:151,0
DA:152,0
DA:153,0
DA:154,0
DA:155,0
DA:156,0
DA:157,0
DA:158,0
DA:159,0
DA:160,0
DA:163,0
DA:164,0
DA:165,0
DA:167,0
DA:170,0
DA:173,0
DA:177,0
DA:181,0
DA:185,0
DA:188,0
DA:189,0
DA:192,0
DA:195,0
DA:196,0
DA:198,0
DA:199,0
DA:200,0
DA:201,0
DA:203,0
DA:205,0
DA:207,0
DA:208,0
DA:209,0
DA:210,0
DA:211,0
DA:212,0
DA:213,0
DA:214,0
DA:215,0
DA:216,0
DA:217,0
DA:218,0
DA:219,0
DA:222,0
DA:223,0
DA:224,0
DA:226,0
DA:229,0
DA:232,0
DA:236,0
DA:240,0
DA:244,0
DA:247,0
DA:248,0
DA:251,0
DA:252,0
DA:253,0
DA:255,0
DA:257,0
DA:259,0
DA:260,0
DA:261,0
DA:262,0
DA:263,0
DA:264,0
DA:265,0
DA:266,0
DA:267,0
DA:268,0
DA:269,0
DA:270,0
DA:271,0
DA:273,0
DA:274,0
DA:275,0
DA:276,0
DA:278,0
DA:281,0
DA:283,0
DA:287,0
DA:290,0
DA:291,0
DA:294,0
DA:295,0
DA:296,0
DA:298,0
DA:300,0
DA:301,0
DA:302,0
DA:304,0
DA:306,0
DA:308,0
DA:309,0
DA:310,0
DA:313,0
DA:314,0
DA:315,0
DA:319,0
DA:320,0
DA:321,0
DA:322,0
DA:323,0
DA:324,0
DA:326,0
DA:330,0
DA:331,0
DA:333,0
DA:335,0
DA:339,0
DA:340,0
DA:341,0
DA:342,0
DA:345,0
DA:346,0
DA:348,0
DA:350,0
DA:353,0
DA:355,0
DA:357,0
DA:358,0
DA:360,0
DA:361,0
DA:362,0
DA:365,0
DA:370,0
DA:371,0
DA:372,0
DA:373,0
DA:374,0
DA:375,0
DA:376,0
DA:379,0
DA:380,0
DA:382,0
DA:383,0
DA:384,0
DA:386,0
DA:387,0
DA:388,0
DA:389,0
DA:390,0
DA:391,0
DA:392,0
DA:393,0
DA:394,0
DA:395,0
DA:396,0
DA:400,0
DA:401,0
DA:404,0
DA:405,0
DA:408,0
DA:410,0
DA:411,0
DA:412,0
DA:413,0
DA:414,0
DA:415,0
DA:416,0
DA:417,0
DA:418,0
DA:419,0
DA:420,0
DA:421,0
DA:423,0
DA:425,0
DA:427,0
DA:428,0
DA:429,0
DA:430,0
DA:431,0
DA:432,0
DA:433,0
DA:434,0
DA:435,0
DA:436,0
DA:437,0
DA:438,0
DA:439,0
DA:441,0
DA:443,0
DA:444,0
DA:445,0
DA:446,0
DA:447,0
DA:448,0
DA:450,0
DA:452,0
DA:453,0
DA:456,0
DA:457,0
DA:458,0
DA:461,0
DA:462,0
DA:463,0
DA:464,0
DA:465,0
DA:467,0
DA:468,0
DA:470,0
DA:471,0
DA:472,0
DA:473,0
DA:474,0
DA:475,0
DA:476,0
DA:478,0
DA:479,0
DA:480,0
DA:481,0
DA:482,0
DA:483,0
DA:484,0
DA:486,0
DA:487,0
DA:488,0
DA:490,0
DA:491,0
DA:492,0
DA:494,0
DA:495,0
DA:496,0
DA:498,0
DA:500,0
DA:501,0
DA:503,0
DA:505,0
DA:506,0
DA:508,0
DA:509,0
DA:510,0
DA:511,0
DA:514,0
DA:515,0
DA:517,0
DA:518,0
DA:519,0
DA:521,0
DA:522,0
DA:523,0
DA:524,0
DA:525,0
DA:526,0
DA:527,0
DA:528,0
DA:529,0
DA:530,0
DA:531,0
DA:532,0
DA:534,0
DA:535,0
DA:537,0
DA:538,0
DA:539,0
DA:540,0
DA:541,0
DA:542,0
DA:543,0
DA:544,0
DA:546,0
DA:549,0
BRF:0
BRH:0
LF:339
LH:0
end_of_record
SF:/home/owner/.ghq/github.com/unhappychoice/gittype/src/game/session_tracker.rs
FN:50,_RNvMNtNtCs4PyLZvEkasu_7gittype4game15session_trackerNtB2_14SessionSummary16add_stage_result
FN:95,_RNvMNtNtCs4PyLZvEkasu_7gittype4game15session_trackerNtB2_14SessionSummary16finalize_session
FN:81,_RNvMNtNtCs4PyLZvEkasu_7gittype4game15session_trackerNtB2_14SessionSummary18add_partial_effort
FN:91,_RNvMNtNtCs4PyLZvEkasu_7gittype4game15session_trackerNtB2_14SessionSummary21total_effort_mistakes
FN:87,_RNvMNtNtCs4PyLZvEkasu_7gittype4game15session_trackerNtB2_14SessionSummary23total_effort_keystrokes
FN:119,_RNvMNtNtCs4PyLZvEkasu_7gittype4game15session_trackerNtB2_14SessionSummary29get_session_completion_status
FN:28,_RNvMNtNtCs4PyLZvEkasu_7gittype4game15session_trackerNtB2_14SessionSummary3new
FN:76,_RNvMNtNtCs4PyLZvEkasu_7gittype4game15session_trackerNtB2_14SessionSummary8add_skip
FN:157,_RNvMs0_NtNtCs4PyLZvEkasu_7gittype4game15session_trackerNtB5_14SessionTracker11record_skip
FN:171,_RNvMs0_NtNtCs4PyLZvEkasu_7gittype4game15session_trackerNtB5_14SessionTracker19get_current_summary
FN:161,_RNvMs0_NtNtCs4PyLZvEkasu_7gittype4game15session_trackerNtB5_14SessionTracker21record_partial_effort
FN:148,_RNvMs0_NtNtCs4PyLZvEkasu_7gittype4game15session_trackerNtB5_14SessionTracker23record_stage_completion
FN:166,_RNvMs0_NtNtCs4PyLZvEkasu_7gittype4game15session_trackerNtB5_14SessionTracker24finalize_and_get_summary
FN:142,_RNvMs0_NtNtCs4PyLZvEkasu_7gittype4game15session_trackerNtB5_14SessionTracker3new
FN:177,_RNvXs1_NtNtCs4PyLZvEkasu_7gittype4game15session_trackerNtB5_14SessionTrackerNtNtCs66KPHxksi63_4core7default7Default7default
FN:131,_RNvXs_NtNtCs4PyLZvEkasu_7gittype4game15session_trackerNtB4_14SessionSummaryNtNtCs66KPHxksi63_4core7default7Default7default
FN:50,_RNvMNtNtCscZjyiejqBjN_7gittype4game15session_trackerNtB2_14SessionSummary16add_stage_result
FN:95,_RNvMNtNtCscZjyiejqBjN_7gittype4game15session_trackerNtB2_14SessionSummary16finalize_session
FN:81,_RNvMNtNtCscZjyiejqBjN_7gittype4game15session_trackerNtB2_14SessionSummary18add_partial_effort
FN:91,_RNvMNtNtCscZjyiejqBjN_7gittype4game15session_trackerNtB2_14SessionSummary21total_effort_mistakes
FN:87,_RNvMNtNtCscZjyiejqBjN_7gittype4game15session_trackerNtB2_14SessionSummary23total_effort_keystrokes
FN:119,_RNvMNtNtCscZjyiejqBjN_7gittype4game15session_trackerNtB2_14SessionSummary29get_session_completion_status
FN:28,_RNvMNtNtCscZjyiejqBjN_7gittype4game15session_trackerNtB2_14SessionSummary3new
FN:76,_RNvMNtNtCscZjyiejqBjN_7gittype4game15session_trackerNtB2_14SessionSummary8add_skip
FN:157,_RNvMs0_NtNtCscZjyiejqBjN_7gittype4game15session_trackerNtB5_14SessionTracker11record_skip
FN:171,_RNvMs0_NtNtCscZjyiejqBjN_7gittype4game15session_trackerNtB5_14SessionTracker19get_current_summary
FN:161,_RNvMs0_NtNtCscZjyiejqBjN_7gittype4game15session_trackerNtB5_14SessionTracker21record_partial_effort
FN:148,_RNvMs0_NtNtCscZjyiejqBjN_7gittype4game15session_trackerNtB5_14SessionTracker23record_stage_completion
FN:166,_RNvMs0_NtNtCscZjyiejqBjN_7gittype4game15session_trackerNtB5_14SessionTracker24finalize_and_get_summary
FN:142,_RNvMs0_NtNtCscZjyiejqBjN_7gittype4game15session_trackerNtB5_14SessionTracker3new
FN:177,_RNvXs1_NtNtCscZjyiejqBjN_7gittype4game15session_trackerNtB5_14SessionTrackerNtNtCs66KPHxksi63_4core7default7Default7default
FN:131,_RNvXs_NtNtCscZjyiejqBjN_7gittype4game15session_trackerNtB4_14SessionSummaryNtNtCs66KPHxksi63_4core7default7Default7default
FNDA:0,_RNvMNtNtCs4PyLZvEkasu_7gittype4game15session_trackerNtB2_14SessionSummary16add_stage_result
FNDA:0,_RNvMNtNtCs4PyLZvEkasu_7gittype4game15session_trackerNtB2_14SessionSummary16finalize_session
FNDA:0,_RNvMNtNtCs4PyLZvEkasu_7gittype4game15session_trackerNtB2_14SessionSummary18add_partial_effort
FNDA:0,_RNvMNtNtCs4PyLZvEkasu_7gittype4game15session_trackerNtB2_14SessionSummary21total_effort_mistakes
FNDA:0,_RNvMNtNtCs4PyLZvEkasu_7gittype4game15session_trackerNtB2_14SessionSummary23total_effort_keystrokes
FNDA:0,_RNvMNtNtCs4PyLZvEkasu_7gittype4game15session_trackerNtB2_14SessionSummary29get_session_completion_status
FNDA:0,_RNvMNtNtCs4PyLZvEkasu_7gittype4game15session_trackerNtB2_14SessionSummary3new
FNDA:0,_RNvMNtNtCs4PyLZvEkasu_7gittype4game15session_trackerNtB2_14SessionSummary8add_skip
FNDA:0,_RNvMs0_NtNtCs4PyLZvEkasu_7gittype4game15session_trackerNtB5_14SessionTracker11record_skip
FNDA:0,_RNvMs0_NtNtCs4PyLZvEkasu_7gittype4game15session_trackerNtB5_14SessionTracker19get_current_summary
FNDA:0,_RNvMs0_NtNtCs4PyLZvEkasu_7gittype4game15session_trackerNtB5_14SessionTracker21record_partial_effort
FNDA:0,_RNvMs0_NtNtCs4PyLZvEkasu_7gittype4game15session_trackerNtB5_14SessionTracker23record_stage_completion
FNDA:0,_RNvMs0_NtNtCs4PyLZvEkasu_7gittype4game15session_trackerNtB5_14SessionTracker24finalize_and_get_summary
FNDA:0,_RNvMs0_NtNtCs4PyLZvEkasu_7gittype4game15session_trackerNtB5_14SessionTracker3new
FNDA:0,_RNvXs1_NtNtCs4PyLZvEkasu_7gittype4game15session_trackerNtB5_14SessionTrackerNtNtCs66KPHxksi63_4core7default7Default7default
FNDA:0,_RNvXs_NtNtCs4PyLZvEkasu_7gittype4game15session_trackerNtB4_14SessionSummaryNtNtCs66KPHxksi63_4core7default7Default7default
FNDA:0,_RNvMNtNtCscZjyiejqBjN_7gittype4game15session_trackerNtB2_14SessionSummary16add_stage_result
FNDA:0,_RNvMNtNtCscZjyiejqBjN_7gittype4game15session_trackerNtB2_14SessionSummary16finalize_session
FNDA:0,_RNvMNtNtCscZjyiejqBjN_7gittype4game15session_trackerNtB2_14SessionSummary18add_partial_effort
FNDA:0,_RNvMNtNtCscZjyiejqBjN_7gittype4game15session_trackerNtB2_14SessionSummary21total_effort_mistakes
FNDA:0,_RNvMNtNtCscZjyiejqBjN_7gittype4game15session_trackerNtB2_14SessionSummary23total_effort_keystrokes
FNDA:0,_RNvMNtNtCscZjyiejqBjN_7gittype4game15session_trackerNtB2_14SessionSummary29get_session_completion_status
FNDA:0,_RNvMNtNtCscZjyiejqBjN_7gittype4game15session_trackerNtB2_14SessionSummary3new
FNDA:0,_RNvMNtNtCscZjyiejqBjN_7gittype4game15session_trackerNtB2_14SessionSummary8add_skip
FNDA:0,_RNvMs0_NtNtCscZjyiejqBjN_7gittype4game15session_trackerNtB5_14SessionTracker11record_skip
FNDA:0,_RNvMs0_NtNtCscZjyiejqBjN_7gittype4game15session_trackerNtB5_14SessionTracker19get_current_summary
FNDA:0,_RNvMs0_NtNtCscZjyiejqBjN_7gittype4game15session_trackerNtB5_14SessionTracker21record_partial_effort
FNDA:0,_RNvMs0_NtNtCscZjyiejqBjN_7gittype4game15session_trackerNtB5_14SessionTracker23record_stage_completion
FNDA:0,_RNvMs0_NtNtCscZjyiejqBjN_7gittype4game15session_trackerNtB5_14SessionTracker24finalize_and_get_summary
FNDA:0,_RNvMs0_NtNtCscZjyiejqBjN_7gittype4game15session_trackerNtB5_14SessionTracker3new
FNDA:0,_RNvXs1_NtNtCscZjyiejqBjN_7gittype4game15session_trackerNtB5_14SessionTrackerNtNtCs66KPHxksi63_4core7default7Default7default
FNDA:0,_RNvXs_NtNtCscZjyiejqBjN_7gittype4game15session_trackerNtB4_14SessionSummaryNtNtCs66KPHxksi63_4core7default7Default7default
FNF:16
FNH:0
DA:28,0
DA:29,0
DA:30,0
DA:31,0
DA:32,0
DA:33,0
DA:34,0
DA:35,0
DA:36,0
DA:37,0
DA:38,0
DA:39,0
DA:40,0
DA:41,0
DA:42,0
DA:43,0
DA:44,0
DA:45,0
DA:46,0
DA:47,0
DA:48,0
DA:50,0
DA:51,0
DA:52,0
DA:53,0
DA:54,0
DA:55,0
DA:56,0
DA:57,0
DA:58,0
DA:59,0
DA:62,0
DA:63,0
DA:64,0
DA:65,0
DA:66,0
DA:67,0
DA:68,0
DA:69,0
DA:70,0
DA:71,0
DA:72,0
DA:73,0
DA:74,0
DA:76,0
DA:77,0
DA:78,0
DA:79,0
DA:81,0
DA:82,0
DA:83,0
DA:84,0
DA:87,0
DA:88,0
DA:89,0
DA:91,0
DA:92,0
DA:93,0
DA:95,0
DA:96,0
DA:97,0
DA:100,0
DA:101,0
DA:102,0
DA:103,0
DA:104,0
DA:105,0
DA:106,0
DA:107,0
DA:108,0
DA:111,0
DA:112,0
DA:113,0
DA:114,0
DA:115,0
DA:116,0
DA:117,0
DA:119,0
DA:120,0
DA:121,0
DA:122,0
DA:123,0
DA:125,0
DA:127,0
DA:131,0
DA:132,0
DA:133,0
DA:142,0
DA:143,0
DA:144,0
DA:145,0
DA:146,0
DA:148,0
DA:149,0
DA:150,0
DA:151,0
DA:152,0
DA:153,0
DA:154,0
DA:155,0
DA:157,0
DA:158,0
DA:159,0
DA:161,0
DA:162,0
DA:163,0
DA:164,0
DA:166,0
DA:167,0
DA:168,0
DA:169,0
DA:171,0
DA:172,0
DA:173,0
DA:177,0
DA:178,0
DA:179,0
BRF:0
BRH:0
LF:117
LH:0
end_of_record
SF:/home/owner/.ghq/github.com/unhappychoice/gittype/src/game/stage_builder.rs
FN:167,_RNCNvMs0_NtNtCs4PyLZvEkasu_7gittype4game13stage_builderNtB7_12StageBuilder19build_custom_stages0Bb_
FN:131,_RNCNvMs0_NtNtCs4PyLZvEkasu_7gittype4game13stage_builderNtB7_12StageBuilder19build_normal_stages0Bb_
FN:153,_RNCNvMs0_NtNtCs4PyLZvEkasu_7gittype4game13stage_builderNtB7_12StageBuilder24build_time_attack_stages0Bb_
FN:28,_RNvMNtNtCs4PyLZvEkasu_7gittype4game13stage_builderNtB2_15DifficultyLevel11char_limits
FN:38,_RNvMNtNtCs4PyLZvEkasu_7gittype4game13stage_builderNtB2_15DifficultyLevel11description
FN:48,_RNvMNtNtCs4PyLZvEkasu_7gittype4game13stage_builderNtB2_15DifficultyLevel8subtitle
FN:185,_RNvMs0_NtNtCs4PyLZvEkasu_7gittype4game13stage_builderNtB5_12StageBuilder10create_rng
FN:103,_RNvMs0_NtNtCs4PyLZvEkasu_7gittype4game13stage_builderNtB5_12StageBuilder12build_stages
FN:93,_RNvMs0_NtNtCs4PyLZvEkasu_7gittype4game13stage_builderNtB5_12StageBuilder15with_max_stages
FN:158,_RNvMs0_NtNtCs4PyLZvEkasu_7gittype4game13stage_builderNtB5_12StageBuilder19build_custom_stages
FN:123,_RNvMs0_NtNtCs4PyLZvEkasu_7gittype4game13stage_builderNtB5_12StageBuilder19build_normal_stages
FN:192,_RNvMs0_NtNtCs4PyLZvEkasu_7gittype4game13stage_builderNtB5_12StageBuilder20get_mode_description
FN:149,_RNvMs0_NtNtCs4PyLZvEkasu_7gittype4game13stage_builderNtB5_12StageBuilder24build_time_attack_stages
FN:81,_RNvMs0_NtNtCs4PyLZvEkasu_7gittype4game13stage_builderNtB5_12StageBuilder3new
FN:85,_RNvMs0_NtNtCs4PyLZvEkasu_7gittype4game13stage_builderNtB5_12StageBuilder9with_mode
FN:98,_RNvMs0_NtNtCs4PyLZvEkasu_7gittype4game13stage_builderNtB5_12StageBuilder9with_seed
FN:67,_RNvXs_NtNtCs4PyLZvEkasu_7gittype4game13stage_builderNtB4_11StageConfigNtNtCs66KPHxksi63_4core7default7Default7default
FN:167,_RNCNvMs0_NtNtCscZjyiejqBjN_7gittype4game13stage_builderNtB7_12StageBuilder19build_custom_stages0Bb_
FN:131,_RNCNvMs0_NtNtCscZjyiejqBjN_7gittype4game13stage_builderNtB7_12StageBuilder19build_normal_stages0Bb_
FN:153,_RNCNvMs0_NtNtCscZjyiejqBjN_7gittype4game13stage_builderNtB7_12StageBuilder24build_time_attack_stages0Bb_
FN:28,_RNvMNtNtCscZjyiejqBjN_7gittype4game13stage_builderNtB2_15DifficultyLevel11char_limits
FN:38,_RNvMNtNtCscZjyiejqBjN_7gittype4game13stage_builderNtB2_15DifficultyLevel11description
FN:48,_RNvMNtNtCscZjyiejqBjN_7gittype4game13stage_builderNtB2_15DifficultyLevel8subtitle
FN:185,_RNvMs0_NtNtCscZjyiejqBjN_7gittype4game13stage_builderNtB5_12StageBuilder10create_rng
FN:103,_RNvMs0_NtNtCscZjyiejqBjN_7gittype4game13stage_builderNtB5_12StageBuilder12build_stages
FN:93,_RNvMs0_NtNtCscZjyiejqBjN_7gittype4game13stage_builderNtB5_12StageBuilder15with_max_stages
FN:158,_RNvMs0_NtNtCscZjyiejqBjN_7gittype4game13stage_builderNtB5_12StageBuilder19build_custom_stages
FN:123,_RNvMs0_NtNtCscZjyiejqBjN_7gittype4game13stage_builderNtB5_12StageBuilder19build_normal_stages
FN:192,_RNvMs0_NtNtCscZjyiejqBjN_7gittype4game13stage_builderNtB5_12StageBuilder20get_mode_description
FN:149,_RNvMs0_NtNtCscZjyiejqBjN_7gittype4game13stage_builderNtB5_12StageBuilder24build_time_attack_stages
FN:81,_RNvMs0_NtNtCscZjyiejqBjN_7gittype4game13stage_builderNtB5_12StageBuilder3new
FN:85,_RNvMs0_NtNtCscZjyiejqBjN_7gittype4game13stage_builderNtB5_12StageBuilder9with_mode
FN:98,_RNvMs0_NtNtCscZjyiejqBjN_7gittype4game13stage_builderNtB5_12StageBuilder9with_seed
FN:67,_RNvXs_NtNtCscZjyiejqBjN_7gittype4game13stage_builderNtB4_11StageConfigNtNtCs66KPHxksi63_4core7default7Default7default
FNDA:9,_RNCNvMs0_NtNtCs4PyLZvEkasu_7gittype4game13stage_builderNtB7_12StageBuilder19build_custom_stages0Bb_
FNDA:180,_RNCNvMs0_NtNtCs4PyLZvEkasu_7gittype4game13stage_builderNtB7_12StageBuilder19build_normal_stages0Bb_
FNDA:14,_RNCNvMs0_NtNtCs4PyLZvEkasu_7gittype4game13stage_builderNtB7_12StageBuilder24build_time_attack_stages0Bb_
FNDA:33,_RNvMNtNtCs4PyLZvEkasu_7gittype4game13stage_builderNtB2_15DifficultyLevel11char_limits
FNDA:0,_RNvMNtNtCs4PyLZvEkasu_7gittype4game13stage_builderNtB2_15DifficultyLevel11description
FNDA:0,_RNvMNtNtCs4PyLZvEkasu_7gittype4game13stage_builderNtB2_15DifficultyLevel8subtitle
FNDA:4,_RNvMs0_NtNtCs4PyLZvEkasu_7gittype4game13stage_builderNtB5_12StageBuilder10create_rng
FNDA:5,_RNvMs0_NtNtCs4PyLZvEkasu_7gittype4game13stage_builderNtB5_12StageBuilder12build_stages
FNDA:2,_RNvMs0_NtNtCs4PyLZvEkasu_7gittype4game13stage_builderNtB5_12StageBuilder15with_max_stages
FNDA:1,_RNvMs0_NtNtCs4PyLZvEkasu_7gittype4game13stage_builderNtB5_12StageBuilder19build_custom_stages
FNDA:3,_RNvMs0_NtNtCs4PyLZvEkasu_7gittype4game13stage_builderNtB5_12StageBuilder19build_normal_stages
FNDA:0,_RNvMs0_NtNtCs4PyLZvEkasu_7gittype4game13stage_builderNtB5_12StageBuilder20get_mode_description
FNDA:1,_RNvMs0_NtNtCs4PyLZvEkasu_7gittype4game13stage_builderNtB5_12StageBuilder24build_time_attack_stages
FNDA:4,_RNvMs0_NtNtCs4PyLZvEkasu_7gittype4game13stage_builderNtB5_12StageBuilder3new
FNDA:4,_RNvMs0_NtNtCs4PyLZvEkasu_7gittype4game13stage_builderNtB5_12StageBuilder9with_mode
FNDA:1,_RNvMs0_NtNtCs4PyLZvEkasu_7gittype4game13stage_builderNtB5_12StageBuilder9with_seed
FNDA:4,_RNvXs_NtNtCs4PyLZvEkasu_7gittype4game13stage_builderNtB4_11StageConfigNtNtCs66KPHxksi63_4core7default7Default7default
FNDA:0,_RNCNvMs0_NtNtCscZjyiejqBjN_7gittype4game13stage_builderNtB7_12StageBuilder19build_custom_stages0Bb_
FNDA:0,_RNCNvMs0_NtNtCscZjyiejqBjN_7gittype4game13stage_builderNtB7_12StageBuilder19build_normal_stages0Bb_
FNDA:0,_RNCNvMs0_NtNtCscZjyiejqBjN_7gittype4game13stage_builderNtB7_12StageBuilder24build_time_attack_stages0Bb_
FNDA:0,_RNvMNtNtCscZjyiejqBjN_7gittype4game13stage_builderNtB2_15DifficultyLevel11char_limits
FNDA:0,_RNvMNtNtCscZjyiejqBjN_7gittype4game13stage_builderNtB2_15DifficultyLevel11description
FNDA:0,_RNvMNtNtCscZjyiejqBjN_7gittype4game13stage_builderNtB2_15DifficultyLevel8subtitle
FNDA:0,_RNvMs0_NtNtCscZjyiejqBjN_7gittype4game13stage_builderNtB5_12StageBuilder10create_rng
FNDA:0,_RNvMs0_NtNtCscZjyiejqBjN_7gittype4game13stage_builderNtB5_12StageBuilder12build_stages
FNDA:0,_RNvMs0_NtNtCscZjyiejqBjN_7gittype4game13stage_builderNtB5_12StageBuilder15with_max_stages
FNDA:0,_RNvMs0_NtNtCscZjyiejqBjN_7gittype4game13stage_builderNtB5_12StageBuilder19build_custom_stages
FNDA:0,_RNvMs0_NtNtCscZjyiejqBjN_7gittype4game13stage_builderNtB5_12StageBuilder19build_normal_stages
FNDA:0,_RNvMs0_NtNtCscZjyiejqBjN_7gittype4game13stage_builderNtB5_12StageBuilder20get_mode_description
FNDA:0,_RNvMs0_NtNtCscZjyiejqBjN_7gittype4game13stage_builderNtB5_12StageBuilder24build_time_attack_stages
FNDA:0,_RNvMs0_NtNtCscZjyiejqBjN_7gittype4game13stage_builderNtB5_12StageBuilder3new
FNDA:0,_RNvMs0_NtNtCscZjyiejqBjN_7gittype4game13stage_builderNtB5_12StageBuilder9with_mode
FNDA:0,_RNvMs0_NtNtCscZjyiejqBjN_7gittype4game13stage_builderNtB5_12StageBuilder9with_seed
FNDA:0,_RNvXs_NtNtCscZjyiejqBjN_7gittype4game13stage_builderNtB4_11StageConfigNtNtCs66KPHxksi63_4core7default7Default7default
FNF:17
FNH:14
DA:28,33
DA:29,33
DA:30,11
DA:31,11
DA:32,11
DA:33,0
DA:34,0
DA:36,33
DA:38,0
DA:39,0
DA:40,0
DA:41,0
DA:42,0
DA:43,0
DA:44,0
DA:46,0
DA:48,0
DA:49,0
DA:50,0
DA:51,0
DA:52,0
DA:53,0
DA:54,0
DA:56,0
DA:67,4
DA:68,4
DA:69,4
DA:70,4
DA:71,4
DA:72,4
DA:73,4
DA:81,4
DA:82,4
DA:83,4
DA:85,4
DA:86,4
DA:87,4
DA:88,4
DA:89,4
DA:90,4
DA:91,4
DA:93,2
DA:94,2
DA:95,2
DA:96,2
DA:98,1
DA:99,1
DA:100,1
DA:101,1
DA:103,5
DA:104,5
DA:105,0
DA:106,5
DA:108,5
DA:109,3
DA:110,1
DA:112,1
DA:113,1
DA:115,1
DA:116,1
DA:117,1
DA:118,1
DA:121,5
DA:123,3
DA:124,3
DA:127,3
DA:128,3
DA:131,180
DA:132,180
DA:134,180
DA:135,70
DA:136,110
DA:137,0
DA:139,110
DA:141,180
DA:143,3
DA:144,3
DA:145,3
DA:146,3
DA:147,3
DA:149,1
DA:152,1
DA:153,14
DA:155,1
DA:156,1
DA:158,1
DA:159,1
DA:160,1
DA:161,1
DA:162,1
DA:163,1
DA:165,1
DA:166,1
DA:167,9
DA:168,9
DA:169,9
DA:170,0
DA:172,9
DA:173,1
DA:175,1
DA:178,1
DA:179,1
DA:180,1
DA:182,1
DA:183,1
DA:185,4
DA:186,4
DA:187,2
DA:188,2
DA:190,4
DA:192,0
DA:193,0
DA:195,0
DA:197,0
DA:199,0
DA:200,0
DA:201,0
DA:203,0
DA:204,0
DA:205,0
DA:206,0
DA:208,0
DA:209,0
DA:214,0
BRF:0
BRH:0
LF:127
LH:92
end_of_record
SF:/home/owner/.ghq/github.com/unhappychoice/gittype/src/game/stage_manager.rs
FN:23,_RNCNvNtNtCs4PyLZvEkasu_7gittype4game13stage_manager22GLOBAL_SESSION_TRACKER0B7_
FN:170,_RNvMNtNtCscZjyiejqBjN_7gittype4game13stage_managerNtB2_12StageManager10run_stages
FN:54,_RNvMNtNtCscZjyiejqBjN_7gittype4game13stage_managerNtB2_12StageManager11run_session
FN:50,_RNvMNtNtCscZjyiejqBjN_7gittype4game13stage_managerNtB2_12StageManager12set_git_info
FN:410,_RNvMNtNtCscZjyiejqBjN_7gittype4game13stage_managerNtB2_12StageManager16get_total_stages
FN:406,_RNvMNtNtCscZjyiejqBjN_7gittype4game13stage_managerNtB2_12StageManager17get_current_stage
FN:382,_RNvMNtNtCscZjyiejqBjN_7gittype4game13stage_managerNtB2_12StageManager20show_session_summary
FN:365,_RNvMNtNtCscZjyiejqBjN_7gittype4game13stage_managerNtB2_12StageManager21show_stage_completion
FN:414,_RNvMNtNtCscZjyiejqBjN_7gittype4game13stage_managerNtB2_12StageManager29handle_fail_result_navigation
FN:390,_RNvMNtNtCscZjyiejqBjN_7gittype4game13stage_managerNtB2_12StageManager29show_session_summary_internal
FN:454,_RNvMNtNtCscZjyiejqBjN_7gittype4game13stage_managerNtB2_12StageManager30count_challenges_by_difficulty
FN:386,_RNvMNtNtCscZjyiejqBjN_7gittype4game13stage_managerNtB2_12StageManager33show_session_summary_no_animation
FN:37,_RNvMNtNtCscZjyiejqBjN_7gittype4game13stage_managerNtB2_12StageManager3new
FN:474,_RNvNtNtCscZjyiejqBjN_7gittype4game13stage_manager33show_session_summary_on_interrupt
FN:23,_RNCNvNtNtCscZjyiejqBjN_7gittype4game13stage_manager22GLOBAL_SESSION_TRACKER0B7_
FN:170,_RNvMNtNtCs4PyLZvEkasu_7gittype4game13stage_managerNtB2_12StageManager10run_stages
FN:54,_RNvMNtNtCs4PyLZvEkasu_7gittype4game13stage_managerNtB2_12StageManager11run_session
FN:50,_RNvMNtNtCs4PyLZvEkasu_7gittype4game13stage_managerNtB2_12StageManager12set_git_info
FN:410,_RNvMNtNtCs4PyLZvEkasu_7gittype4game13stage_managerNtB2_12StageManager16get_total_stages
FN:406,_RNvMNtNtCs4PyLZvEkasu_7gittype4game13stage_managerNtB2_12StageManager17get_current_stage
FN:382,_RNvMNtNtCs4PyLZvEkasu_7gittype4game13stage_managerNtB2_12StageManager20show_session_summary
FN:365,_RNvMNtNtCs4PyLZvEkasu_7gittype4game13stage_managerNtB2_12StageManager21show_stage_completion
FN:414,_RNvMNtNtCs4PyLZvEkasu_7gittype4game13stage_managerNtB2_12StageManager29handle_fail_result_navigation
FN:390,_RNvMNtNtCs4PyLZvEkasu_7gittype4game13stage_managerNtB2_12StageManager29show_session_summary_internal
FN:454,_RNvMNtNtCs4PyLZvEkasu_7gittype4game13stage_managerNtB2_12StageManager30count_challenges_by_difficulty
FN:386,_RNvMNtNtCs4PyLZvEkasu_7gittype4game13stage_managerNtB2_12StageManager33show_session_summary_no_animation
FN:37,_RNvMNtNtCs4PyLZvEkasu_7gittype4game13stage_managerNtB2_12StageManager3new
FN:474,_RNvNtNtCs4PyLZvEkasu_7gittype4game13stage_manager33show_session_summary_on_interrupt
FNDA:0,_RNCNvNtNtCs4PyLZvEkasu_7gittype4game13stage_manager22GLOBAL_SESSION_TRACKER0B7_
FNDA:0,_RNvMNtNtCscZjyiejqBjN_7gittype4game13stage_managerNtB2_12StageManager10run_stages
FNDA:0,_RNvMNtNtCscZjyiejqBjN_7gittype4game13stage_managerNtB2_12StageManager11run_session
FNDA:0,_RNvMNtNtCscZjyiejqBjN_7gittype4game13stage_managerNtB2_12StageManager12set_git_info
FNDA:0,_RNvMNtNtCscZjyiejqBjN_7gittype4game13stage_managerNtB2_12StageManager16get_total_stages
FNDA:0,_RNvMNtNtCscZjyiejqBjN_7gittype4game13stage_managerNtB2_12StageManager17get_current_stage
FNDA:0,_RNvMNtNtCscZjyiejqBjN_7gittype4game13stage_managerNtB2_12StageManager20show_session_summary
FNDA:0,_RNvMNtNtCscZjyiejqBjN_7gittype4game13stage_managerNtB2_12StageManager21show_stage_completion
FNDA:0,_RNvMNtNtCscZjyiejqBjN_7gittype4game13stage_managerNtB2_12StageManager29handle_fail_result_navigation
FNDA:0,_RNvMNtNtCscZjyiejqBjN_7gittype4game13stage_managerNtB2_12StageManager29show_session_summary_internal
FNDA:0,_RNvMNtNtCscZjyiejqBjN_7gittype4game13stage_managerNtB2_12StageManager30count_challenges_by_difficulty
FNDA:0,_RNvMNtNtCscZjyiejqBjN_7gittype4game13stage_managerNtB2_12StageManager33show_session_summary_no_animation
FNDA:0,_RNvMNtNtCscZjyiejqBjN_7gittype4game13stage_managerNtB2_12StageManager3new
FNDA:0,_RNvNtNtCscZjyiejqBjN_7gittype4game13stage_manager33show_session_summary_on_interrupt
FNDA:0,_RNCNvNtNtCscZjyiejqBjN_7gittype4game13stage_manager22GLOBAL_SESSION_TRACKER0B7_
FNDA:0,_RNvMNtNtCs4PyLZvEkasu_7gittype4game13stage_managerNtB2_12StageManager10run_stages
FNDA:0,_RNvMNtNtCs4PyLZvEkasu_7gittype4game13stage_managerNtB2_12StageManager11run_session
FNDA:0,_RNvMNtNtCs4PyLZvEkasu_7gittype4game13stage_managerNtB2_12StageManager12set_git_info
FNDA:0,_RNvMNtNtCs4PyLZvEkasu_7gittype4game13stage_managerNtB2_12StageManager16get_total_stages
FNDA:0,_RNvMNtNtCs4PyLZvEkasu_7gittype4game13stage_managerNtB2_12StageManager17get_current_stage
FNDA:0,_RNvMNtNtCs4PyLZvEkasu_7gittype4game13stage_managerNtB2_12StageManager20show_session_summary
FNDA:0,_RNvMNtNtCs4PyLZvEkasu_7gittype4game13stage_managerNtB2_12StageManager21show_stage_completion
FNDA:0,_RNvMNtNtCs4PyLZvEkasu_7gittype4game13stage_managerNtB2_12StageManager29handle_fail_result_navigation
FNDA:0,_RNvMNtNtCs4PyLZvEkasu_7gittype4game13stage_managerNtB2_12StageManager29show_session_summary_internal
FNDA:0,_RNvMNtNtCs4PyLZvEkasu_7gittype4game13stage_managerNtB2_12StageManager30count_challenges_by_difficulty
FNDA:0,_RNvMNtNtCs4PyLZvEkasu_7gittype4game13stage_managerNtB2_12StageManager33show_session_summary_no_animation
FNDA:0,_RNvMNtNtCs4PyLZvEkasu_7gittype4game13stage_managerNtB2_12StageManager3new
FNDA:0,_RNvNtNtCs4PyLZvEkasu_7gittype4game13stage_manager33show_session_summary_on_interrupt
FNF:14
FNH:0
DA:23,0
DA:37,0
DA:38,0
DA:39,0
DA:40,0
DA:41,0
DA:42,0
DA:43,0
DA:44,0
DA:45,0
DA:46,0
DA:47,0
DA:48,0
DA:50,0
DA:51,0
DA:52,0
DA:54,0
DA:56,0
DA:57,0
DA:58,0
DA:59,0
DA:62,0
DA:63,0
DA:64,0
DA:65,0
DA:66,0
DA:67,0
DA:68,0
DA:73,0
DA:74,0
DA:75,0
DA:82,0
DA:86,0
DA:88,0
DA:89,0
DA:90,0
DA:91,0
DA:92,0
DA:94,0
DA:95,0
DA:96,0
DA:97,0
DA:98,0
DA:100,0
DA:103,0
DA:104,0
DA:105,0
DA:108,0
DA:109,0
DA:110,0
DA:111,0
DA:114,0
DA:115,0
DA:116,0
DA:117,0
DA:118,0
DA:119,0
DA:120,0
DA:121,0
DA:123,0
DA:124,0
DA:125,0
DA:126,0
DA:129,0
DA:130,0
DA:131,0
DA:133,0
DA:134,0
DA:135,0
DA:136,0
DA:137,0
DA:140,0
DA:141,0
DA:142,0
DA:149,0
DA:150,0
DA:151,0
DA:157,0
DA:158,0
DA:159,0
DA:160,0
DA:163,0
DA:164,0
DA:166,0
DA:167,0
DA:168,0
DA:170,0
DA:171,0
DA:172,0
DA:175,0
DA:177,0
DA:180,0
DA:181,0
DA:182,0
DA:183,0
DA:184,0
DA:187,0
DA:188,0
DA:189,0
DA:190,0
DA:193,0
DA:196,0
DA:197,0
DA:199,0
DA:200,0
DA:203,0
DA:204,0
DA:205,0
DA:206,0
DA:211,0
DA:212,0
DA:213,0
DA:214,0
DA:218,0
DA:221,0
DA:225,0
DA:226,0
DA:227,0
DA:231,0
DA:232,0
DA:233,0
DA:234,0
DA:237,0
DA:240,0
DA:241,0
DA:242,0
DA:243,0
DA:245,0
DA:246,0
DA:247,0
DA:248,0
DA:249,0
DA:250,0
DA:255,0
DA:256,0
DA:258,0
DA:259,0
DA:262,0
DA:263,0
DA:264,0
DA:265,0
DA:269,0
DA:273,0
DA:274,0
DA:278,0
DA:279,0
DA:280,0
DA:281,0
DA:285,0
DA:286,0
DA:287,0
DA:288,0
DA:292,0
DA:298,0
DA:300,0
DA:301,0
DA:302,0
DA:304,0
DA:307,0
DA:308,0
DA:311,0
DA:312,0
DA:313,0
DA:314,0
DA:315,0
DA:317,0
DA:321,0
DA:324,0
DA:325,0
DA:326,0
DA:327,0
DA:328,0
DA:329,0
DA:331,0
DA:332,0
DA:333,0
DA:337,0
DA:339,0
DA:340,0
DA:343,0
DA:344,0
DA:346,0
DA:347,0
DA:348,0
DA:349,0
DA:350,0
DA:351,0
DA:352,0
DA:354,0
DA:355,0
DA:360,0
DA:363,0
DA:365,0
DA:367,0
DA:368,0
DA:370,0
DA:373,0
DA:374,0
DA:375,0
DA:376,0
DA:377,0
DA:378,0
DA:380,0
DA:382,0
DA:383,0
DA:384,0
DA:386,0
DA:387,0
DA:388,0
DA:390,0
DA:391,0
DA:392,0
DA:393,0
DA:394,0
DA:395,0
DA:398,0
DA:399,0
DA:400,0
DA:401,0
DA:404,0
DA:406,0
DA:407,0
DA:408,0
DA:410,0
DA:411,0
DA:412,0
DA:414,0
DA:418,0
DA:419,0
DA:420,0
DA:421,0
DA:422,0
DA:426,0
DA:427,0
DA:428,0
DA:431,0
DA:435,0
DA:436,0
DA:437,0
DA:438,0
DA:441,0
DA:442,0
DA:443,0
DA:445,0
DA:447,0
DA:449,0
DA:450,0
DA:452,0
DA:454,0
DA:455,0
DA:457,0
DA:458,0
DA:459,0
DA:460,0
DA:461,0
DA:462,0
DA:463,0
DA:464,0
DA:466,0
DA:469,0
DA:470,0
DA:474,0
DA:477,0
DA:478,0
DA:479,0
DA:480,0
DA:481,0
DA:482,0
DA:483,0
DA:484,0
DA:485,0
DA:487,0
DA:495,0
DA:496,0
DA:497,0
DA:500,0
DA:501,0
DA:502,0
DA:503,0
DA:506,0
DA:507,0
DA:508,0
DA:509,0
DA:510,0
DA:511,0
DA:512,0
DA:515,0
DA:518,0
DA:519,0
DA:520,0
DA:521,0
DA:522,0
DA:523,0
DA:524,0
DA:526,0
DA:528,0
BRF:0
BRH:0
LF:296
LH:0
end_of_record
SF:/home/owner/.ghq/github.com/unhappychoice/gittype/src/game/text_processor.rs
FN:85,_RNCNCNvMNtNtCs4PyLZvEkasu_7gittype4game14text_processorNtB6_13TextProcessor43process_challenge_text_with_comment_mapping00Ba_
FN:86,_RNCNCNvMNtNtCs4PyLZvEkasu_7gittype4game14text_processorNtB6_13TextProcessor43process_challenge_text_with_comment_mapping0s_0Ba_
FN:258,_RNCNvMNtNtCs4PyLZvEkasu_7gittype4game14text_processorNtB4_13TextProcessor22is_position_in_comment0B8_
FN:6,_RNCNvMNtNtCs4PyLZvEkasu_7gittype4game14text_processorNtB4_13TextProcessor22process_challenge_text0B8_
FN:7,_RNCNvMNtNtCs4PyLZvEkasu_7gittype4game14text_processorNtB4_13TextProcessor22process_challenge_texts_0B8_
FN:115,_RNCNvMNtNtCs4PyLZvEkasu_7gittype4game14text_processorNtB4_13TextProcessor25find_first_non_whitespace0B8_
FN:275,_RNCNvMNtNtCs4PyLZvEkasu_7gittype4game14text_processorNtB4_13TextProcessor28is_whitespace_before_comment0B8_
FN:288,_RNCNvMNtNtCs4PyLZvEkasu_7gittype4game14text_processorNtB4_13TextProcessor28is_whitespace_before_comments_0B8_
FN:318,_RNCNvMNtNtCs4PyLZvEkasu_7gittype4game14text_processorNtB4_13TextProcessor34is_newline_after_comment_only_line0B8_
FN:146,_RNCNvMNtNtCs4PyLZvEkasu_7gittype4game14text_processorNtB4_13TextProcessor36find_first_non_whitespace_or_comment0B8_
FN:152,_RNCNvMNtNtCs4PyLZvEkasu_7gittype4game14text_processorNtB4_13TextProcessor36find_first_non_whitespace_or_comments_0B8_
FN:73,_RNCNvMNtNtCs4PyLZvEkasu_7gittype4game14text_processorNtB4_13TextProcessor43process_challenge_text_with_comment_mapping0B8_
FN:101,_RNvMNtNtCs4PyLZvEkasu_7gittype4game14text_processorNtB2_13TextProcessor21calculate_line_starts
FN:182,_RNvMNtNtCs4PyLZvEkasu_7gittype4game14text_processorNtB2_13TextProcessor21should_skip_character
FN:255,_RNvMNtNtCs4PyLZvEkasu_7gittype4game14text_processorNtB2_13TextProcessor22is_position_in_comment
FN:4,_RNvMNtNtCs4PyLZvEkasu_7gittype4game14text_processorNtB2_13TextProcessor22process_challenge_text
FN:111,_RNvMNtNtCs4PyLZvEkasu_7gittype4game14text_processorNtB2_13TextProcessor25find_first_non_whitespace
FN:223,_RNvMNtNtCs4PyLZvEkasu_7gittype4game14text_processorNtB2_13TextProcessor25is_at_end_of_line_content
FN:167,_RNvMNtNtCs4PyLZvEkasu_7gittype4game14text_processorNtB2_13TextProcessor25should_skip_final_newline
FN:261,_RNvMNtNtCs4PyLZvEkasu_7gittype4game14text_processorNtB2_13TextProcessor28is_whitespace_before_comment
FN:294,_RNvMNtNtCs4PyLZvEkasu_7gittype4game14text_processorNtB2_13TextProcessor34is_newline_after_comment_only_line
FN:120,_RNvMNtNtCs4PyLZvEkasu_7gittype4game14text_processorNtB2_13TextProcessor36find_first_non_whitespace_or_comment
FN:14,_RNvMNtNtCs4PyLZvEkasu_7gittype4game14text_processorNtB2_13TextProcessor43process_challenge_text_with_comment_mapping
FN:85,_RNCNCNvMNtNtCscZjyiejqBjN_7gittype4game14text_processorNtB6_13TextProcessor43process_challenge_text_with_comment_mapping00Ba_
FN:86,_RNCNCNvMNtNtCscZjyiejqBjN_7gittype4game14text_processorNtB6_13TextProcessor43process_challenge_text_with_comment_mapping0s_0Ba_
FN:258,_RNCNvMNtNtCscZjyiejqBjN_7gittype4game14text_processorNtB4_13TextProcessor22is_position_in_comment0B8_
FN:6,_RNCNvMNtNtCscZjyiejqBjN_7gittype4game14text_processorNtB4_13TextProcessor22process_challenge_text0B8_
FN:7,_RNCNvMNtNtCscZjyiejqBjN_7gittype4game14text_processorNtB4_13TextProcessor22process_challenge_texts_0B8_
FN:115,_RNCNvMNtNtCscZjyiejqBjN_7gittype4game14text_processorNtB4_13TextProcessor25find_first_non_whitespace0B8_
FN:275,_RNCNvMNtNtCscZjyiejqBjN_7gittype4game14text_processorNtB4_13TextProcessor28is_whitespace_before_comment0B8_
FN:288,_RNCNvMNtNtCscZjyiejqBjN_7gittype4game14text_processorNtB4_13TextProcessor28is_whitespace_before_comments_0B8_
FN:318,_RNCNvMNtNtCscZjyiejqBjN_7gittype4game14text_processorNtB4_13TextProcessor34is_newline_after_comment_only_line0B8_
FN:146,_RNCNvMNtNtCscZjyiejqBjN_7gittype4game14text_processorNtB4_13TextProcessor36find_first_non_whitespace_or_comment0B8_
FN:152,_RNCNvMNtNtCscZjyiejqBjN_7gittype4game14text_processorNtB4_13TextProcessor36find_first_non_whitespace_or_comments_0B8_
FN:73,_RNCNvMNtNtCscZjyiejqBjN_7gittype4game14text_processorNtB4_13TextProcessor43process_challenge_text_with_comment_mapping0B8_
FN:101,_RNvMNtNtCscZjyiejqBjN_7gittype4game14text_processorNtB2_13TextProcessor21calculate_line_starts
FN:182,_RNvMNtNtCscZjyiejqBjN_7gittype4game14text_processorNtB2_13TextProcessor21should_skip_character
FN:255,_RNvMNtNtCscZjyiejqBjN_7gittype4game14text_processorNtB2_13TextProcessor22is_position_in_comment
FN:4,_RNvMNtNtCscZjyiejqBjN_7gittype4game14text_processorNtB2_13TextProcessor22process_challenge_text
FN:111,_RNvMNtNtCscZjyiejqBjN_7gittype4game14text_processorNtB2_13TextProcessor25find_first_non_whitespace
FN:223,_RNvMNtNtCscZjyiejqBjN_7gittype4game14text_processorNtB2_13TextProcessor25is_at_end_of_line_content
FN:167,_RNvMNtNtCscZjyiejqBjN_7gittype4game14text_processorNtB2_13TextProcessor25should_skip_final_newline
FN:261,_RNvMNtNtCscZjyiejqBjN_7gittype4game14text_processorNtB2_13TextProcessor28is_whitespace_before_comment
FN:294,_RNvMNtNtCscZjyiejqBjN_7gittype4game14text_processorNtB2_13TextProcessor34is_newline_after_comment_only_line
FN:120,_RNvMNtNtCscZjyiejqBjN_7gittype4game14text_processorNtB2_13TextProcessor36find_first_non_whitespace_or_comment
FN:14,_RNvMNtNtCscZjyiejqBjN_7gittype4game14text_processorNtB2_13TextProcessor43process_challenge_text_with_comment_mapping
FNDA:0,_RNCNCNvMNtNtCs4PyLZvEkasu_7gittype4game14text_processorNtB6_13TextProcessor43process_challenge_text_with_comment_mapping00Ba_
FNDA:0,_RNCNCNvMNtNtCs4PyLZvEkasu_7gittype4game14text_processorNtB6_13TextProcessor43process_challenge_text_with_comment_mapping0s_0Ba_
FNDA:0,_RNCNvMNtNtCs4PyLZvEkasu_7gittype4game14text_processorNtB4_13TextProcessor22is_position_in_comment0B8_
FNDA:0,_RNCNvMNtNtCs4PyLZvEkasu_7gittype4game14text_processorNtB4_13TextProcessor22process_challenge_text0B8_
FNDA:0,_RNCNvMNtNtCs4PyLZvEkasu_7gittype4game14text_processorNtB4_13TextProcessor22process_challenge_texts_0B8_
FNDA:0,_RNCNvMNtNtCs4PyLZvEkasu_7gittype4game14text_processorNtB4_13TextProcessor25find_first_non_whitespace0B8_
FNDA:0,_RNCNvMNtNtCs4PyLZvEkasu_7gittype4game14text_processorNtB4_13TextProcessor28is_whitespace_before_comment0B8_
FNDA:0,_RNCNvMNtNtCs4PyLZvEkasu_7gittype4game14text_processorNtB4_13TextProcessor28is_whitespace_before_comments_0B8_
FNDA:0,_RNCNvMNtNtCs4PyLZvEkasu_7gittype4game14text_processorNtB4_13TextProcessor34is_newline_after_comment_only_line0B8_
FNDA:0,_RNCNvMNtNtCs4PyLZvEkasu_7gittype4game14text_processorNtB4_13TextProcessor36find_first_non_whitespace_or_comment0B8_
FNDA:0,_RNCNvMNtNtCs4PyLZvEkasu_7gittype4game14text_processorNtB4_13TextProcessor36find_first_non_whitespace_or_comments_0B8_
FNDA:0,_RNCNvMNtNtCs4PyLZvEkasu_7gittype4game14text_processorNtB4_13TextProcessor43process_challenge_text_with_comment_mapping0B8_
FNDA:0,_RNvMNtNtCs4PyLZvEkasu_7gittype4game14text_processorNtB2_13TextProcessor21calculate_line_starts
FNDA:0,_RNvMNtNtCs4PyLZvEkasu_7gittype4game14text_processorNtB2_13TextProcessor21should_skip_character
FNDA:0,_RNvMNtNtCs4PyLZvEkasu_7gittype4game14text_processorNtB2_13TextProcessor22is_position_in_comment
FNDA:0,_RNvMNtNtCs4PyLZvEkasu_7gittype4game14text_processorNtB2_13TextProcessor22process_challenge_text
FNDA:0,_RNvMNtNtCs4PyLZvEkasu_7gittype4game14text_processorNtB2_13TextProcessor25find_first_non_whitespace
FNDA:0,_RNvMNtNtCs4PyLZvEkasu_7gittype4game14text_processorNtB2_13TextProcessor25is_at_end_of_line_content
FNDA:0,_RNvMNtNtCs4PyLZvEkasu_7gittype4game14text_processorNtB2_13TextProcessor25should_skip_final_newline
FNDA:0,_RNvMNtNtCs4PyLZvEkasu_7gittype4game14text_processorNtB2_13TextProcessor28is_whitespace_before_comment
FNDA:0,_RNvMNtNtCs4PyLZvEkasu_7gittype4game14text_processorNtB2_13TextProcessor34is_newline_after_comment_only_line
FNDA:0,_RNvMNtNtCs4PyLZvEkasu_7gittype4game14text_processorNtB2_13TextProcessor36find_first_non_whitespace_or_comment
FNDA:17,_RNvMNtNtCs4PyLZvEkasu_7gittype4game14text_processorNtB2_13TextProcessor43process_challenge_text_with_comment_mapping
FNDA:0,_RNCNCNvMNtNtCscZjyiejqBjN_7gittype4game14text_processorNtB6_13TextProcessor43process_challenge_text_with_comment_mapping00Ba_
FNDA:0,_RNCNCNvMNtNtCscZjyiejqBjN_7gittype4game14text_processorNtB6_13TextProcessor43process_challenge_text_with_comment_mapping0s_0Ba_
FNDA:0,_RNCNvMNtNtCscZjyiejqBjN_7gittype4game14text_processorNtB4_13TextProcessor22is_position_in_comment0B8_
FNDA:0,_RNCNvMNtNtCscZjyiejqBjN_7gittype4game14text_processorNtB4_13TextProcessor22process_challenge_text0B8_
FNDA:0,_RNCNvMNtNtCscZjyiejqBjN_7gittype4game14text_processorNtB4_13TextProcessor22process_challenge_texts_0B8_
FNDA:0,_RNCNvMNtNtCscZjyiejqBjN_7gittype4game14text_processorNtB4_13TextProcessor25find_first_non_whitespace0B8_
FNDA:0,_RNCNvMNtNtCscZjyiejqBjN_7gittype4game14text_processorNtB4_13TextProcessor28is_whitespace_before_comment0B8_
FNDA:0,_RNCNvMNtNtCscZjyiejqBjN_7gittype4game14text_processorNtB4_13TextProcessor28is_whitespace_before_comments_0B8_
FNDA:0,_RNCNvMNtNtCscZjyiejqBjN_7gittype4game14text_processorNtB4_13TextProcessor34is_newline_after_comment_only_line0B8_
FNDA:0,_RNCNvMNtNtCscZjyiejqBjN_7gittype4game14text_processorNtB4_13TextProcessor36find_first_non_whitespace_or_comment0B8_
FNDA:0,_RNCNvMNtNtCscZjyiejqBjN_7gittype4game14text_processorNtB4_13TextProcessor36find_first_non_whitespace_or_comments_0B8_
FNDA:0,_RNCNvMNtNtCscZjyiejqBjN_7gittype4game14text_processorNtB4_13TextProcessor43process_challenge_text_with_comment_mapping0B8_
FNDA:0,_RNvMNtNtCscZjyiejqBjN_7gittype4game14text_processorNtB2_13TextProcessor21calculate_line_starts
FNDA:0,_RNvMNtNtCscZjyiejqBjN_7gittype4game14text_processorNtB2_13TextProcessor21should_skip_character
FNDA:0,_RNvMNtNtCscZjyiejqBjN_7gittype4game14text_processorNtB2_13TextProcessor22is_position_in_comment
FNDA:0,_RNvMNtNtCscZjyiejqBjN_7gittype4game14text_processorNtB2_13TextProcessor22process_challenge_text
FNDA:0,_RNvMNtNtCscZjyiejqBjN_7gittype4game14text_processorNtB2_13TextProcessor25find_first_non_whitespace
FNDA:0,_RNvMNtNtCscZjyiejqBjN_7gittype4game14text_processorNtB2_13TextProcessor25is_at_end_of_line_content
FNDA:0,_RNvMNtNtCscZjyiejqBjN_7gittype4game14text_processorNtB2_13TextProcessor25should_skip_final_newline
FNDA:0,_RNvMNtNtCscZjyiejqBjN_7gittype4game14text_processorNtB2_13TextProcessor28is_whitespace_before_comment
FNDA:0,_RNvMNtNtCscZjyiejqBjN_7gittype4game14text_processorNtB2_13TextProcessor34is_newline_after_comment_only_line
FNDA:0,_RNvMNtNtCscZjyiejqBjN_7gittype4game14text_processorNtB2_13TextProcessor36find_first_non_whitespace_or_comment
FNDA:0,_RNvMNtNtCscZjyiejqBjN_7gittype4game14text_processorNtB2_13TextProcessor43process_challenge_text_with_comment_mapping
FNF:23
FNH:1
DA:4,0
DA:5,0
DA:6,0
DA:7,0
DA:8,0
DA:9,0
DA:10,0
DA:11,0
DA:12,0
DA:14,17
DA:15,17
DA:16,17
DA:17,17
DA:19,17
DA:20,17
DA:21,17
DA:23,17
DA:24,17
DA:26,75
DA:27,58
DA:30,58
DA:32,2
DA:33,0
DA:34,0
DA:35,0
DA:37,2
DA:38,2
DA:39,2
DA:40,2
DA:43,1174
DA:44,1174
DA:45,1174
DA:46,1174
DA:47,1174
DA:50,56
DA:51,39
DA:52,0
DA:53,0
DA:54,0
DA:55,0
DA:58,56
DA:59,39
DA:60,39
DA:61,39
DA:62,39
DA:64,56
DA:68,17
DA:71,17
DA:72,17
DA:73,17
DA:75,0
DA:76,0
DA:78,0
DA:81,0
DA:83,0
DA:84,0
DA:85,0
DA:86,0
DA:88,0
DA:91,0
DA:92,0
DA:93,0
DA:95,0
DA:96,17
DA:98,17
DA:99,17
DA:101,0
DA:102,0
DA:103,0
DA:104,0
DA:105,0
DA:106,0
DA:108,0
DA:109,0
DA:111,0
DA:112,0
DA:113,0
DA:114,0
DA:115,0
DA:116,0
DA:117,0
DA:118,0
DA:120,0
DA:121,0
DA:122,0
DA:123,0
DA:124,0
DA:125,0
DA:126,0
DA:128,0
DA:129,0
DA:132,0
DA:133,0
DA:134,0
DA:135,0
DA:138,0
DA:139,0
DA:140,0
DA:141,0
DA:144,0
DA:145,0
DA:146,0
DA:148,0
DA:150,0
DA:151,0
DA:152,0
DA:154,0
DA:155,0
DA:156,0
DA:157,0
DA:160,0
DA:164,0
DA:165,0
DA:167,0
DA:169,0
DA:170,0
DA:171,0
DA:172,0
DA:175,0
DA:176,0
DA:177,0
DA:179,0
DA:180,0
DA:182,0
DA:183,0
DA:184,0
DA:185,0
DA:186,0
DA:187,0
DA:188,0
DA:189,0
DA:190,0
DA:191,0
DA:194,0
DA:196,0
DA:197,0
DA:199,0
DA:200,0
DA:201,0
DA:202,0
DA:205,0
DA:206,0
DA:207,0
DA:208,0
DA:209,0
DA:210,0
DA:211,0
DA:215,0
DA:216,0
DA:217,0
DA:220,0
DA:221,0
DA:223,0
DA:224,0
DA:225,0
DA:226,0
DA:227,0
DA:228,0
DA:229,0
DA:230,0
DA:231,0
DA:232,0
DA:234,0
DA:237,0
DA:238,0
DA:239,0
DA:243,0
DA:244,0
DA:245,0
DA:246,0
DA:247,0
DA:248,0
DA:249,0
DA:252,0
DA:253,0
DA:255,0
DA:256,0
DA:257,0
DA:258,0
DA:259,0
DA:261,0
DA:262,0
DA:263,0
DA:264,0
DA:265,0
DA:266,0
DA:269,0
DA:270,0
DA:271,0
DA:274,0
DA:275,0
DA:276,0
DA:277,0
DA:280,0
DA:281,0
DA:282,0
DA:283,0
DA:284,0
DA:285,0
DA:288,0
DA:291,0
DA:292,0
DA:294,0
DA:295,0
DA:296,0
DA:297,0
DA:298,0
DA:299,0
DA:302,0
DA:303,0
DA:304,0
DA:307,0
DA:308,0
DA:309,0
DA:310,0
DA:313,0
DA:314,0
DA:316,0
DA:317,0
DA:318,0
DA:321,0
DA:322,0
DA:323,0
DA:327,0
DA:328,0
BRF:0
BRH:0
LF:237
LH:37
end_of_record
SF:/home/owner/.ghq/github.com/unhappychoice/gittype/src/game/typing_animation.rs
FN:48,_RNCNvMNtNtCs4PyLZvEkasu_7gittype4game16typing_animationNtB4_15TypingAnimation17set_rank_messages0B8_
FN:121,_RNvMNtNtCs4PyLZvEkasu_7gittype4game16typing_animationNtB2_15TypingAnimation11is_complete
FN:129,_RNvMNtNtCs4PyLZvEkasu_7gittype4game16typing_animationNtB2_15TypingAnimation14get_pause_dots
FN:125,_RNvMNtNtCs4PyLZvEkasu_7gittype4game16typing_animationNtB2_15TypingAnimation16get_current_line
FN:113,_RNvMNtNtCs4PyLZvEkasu_7gittype4game16typing_animationNtB2_15TypingAnimation17get_current_phase
FN:117,_RNvMNtNtCs4PyLZvEkasu_7gittype4game16typing_animationNtB2_15TypingAnimation17get_hacking_lines
FN:42,_RNvMNtNtCs4PyLZvEkasu_7gittype4game16typing_animationNtB2_15TypingAnimation17set_rank_messages
FN:32,_RNvMNtNtCs4PyLZvEkasu_7gittype4game16typing_animationNtB2_15TypingAnimation3new
FN:56,_RNvMNtNtCs4PyLZvEkasu_7gittype4game16typing_animationNtB2_15TypingAnimation6update
FN:48,_RNCNvMNtNtCscZjyiejqBjN_7gittype4game16typing_animationNtB4_15TypingAnimation17set_rank_messages0B8_
FN:121,_RNvMNtNtCscZjyiejqBjN_7gittype4game16typing_animationNtB2_15TypingAnimation11is_complete
FN:129,_RNvMNtNtCscZjyiejqBjN_7gittype4game16typing_animationNtB2_15TypingAnimation14get_pause_dots
FN:125,_RNvMNtNtCscZjyiejqBjN_7gittype4game16typing_animationNtB2_15TypingAnimation16get_current_line
FN:113,_RNvMNtNtCscZjyiejqBjN_7gittype4game16typing_animationNtB2_15TypingAnimation17get_current_phase
FN:117,_RNvMNtNtCscZjyiejqBjN_7gittype4game16typing_animationNtB2_15TypingAnimation17get_hacking_lines
FN:42,_RNvMNtNtCscZjyiejqBjN_7gittype4game16typing_animationNtB2_15TypingAnimation17set_rank_messages
FN:32,_RNvMNtNtCscZjyiejqBjN_7gittype4game16typing_animationNtB2_15TypingAnimation3new
FN:56,_RNvMNtNtCscZjyiejqBjN_7gittype4game16typing_animationNtB2_15TypingAnimation6update
FNDA:0,_RNCNvMNtNtCs4PyLZvEkasu_7gittype4game16typing_animationNtB4_15TypingAnimation17set_rank_messages0B8_
FNDA:0,_RNvMNtNtCs4PyLZvEkasu_7gittype4game16typing_animationNtB2_15TypingAnimation11is_complete
FNDA:0,_RNvMNtNtCs4PyLZvEkasu_7gittype4game16typing_animationNtB2_15TypingAnimation14get_pause_dots
FNDA:0,_RNvMNtNtCs4PyLZvEkasu_7gittype4game16typing_animationNtB2_15TypingAnimation16get_current_line
FNDA:0,_RNvMNtNtCs4PyLZvEkasu_7gittype4game16typing_animationNtB2_15TypingAnimation17get_current_phase
FNDA:0,_RNvMNtNtCs4PyLZvEkasu_7gittype4game16typing_animationNtB2_15TypingAnimation17get_hacking_lines
FNDA:0,_RNvMNtNtCs4PyLZvEkasu_7gittype4game16typing_animationNtB2_15TypingAnimation17set_rank_messages
FNDA:0,_RNvMNtNtCs4PyLZvEkasu_7gittype4game16typing_animationNtB2_15TypingAnimation3new
FNDA:0,_RNvMNtNtCs4PyLZvEkasu_7gittype4game16typing_animationNtB2_15TypingAnimation6update
FNDA:0,_RNCNvMNtNtCscZjyiejqBjN_7gittype4game16typing_animationNtB4_15TypingAnimation17set_rank_messages0B8_
FNDA:0,_RNvMNtNtCscZjyiejqBjN_7gittype4game16typing_animationNtB2_15TypingAnimation11is_complete
FNDA:0,_RNvMNtNtCscZjyiejqBjN_7gittype4game16typing_animationNtB2_15TypingAnimation14get_pause_dots
FNDA:0,_RNvMNtNtCscZjyiejqBjN_7gittype4game16typing_animationNtB2_15TypingAnimation16get_current_line
FNDA:0,_RNvMNtNtCscZjyiejqBjN_7gittype4game16typing_animationNtB2_15TypingAnimation17get_current_phase
FNDA:0,_RNvMNtNtCscZjyiejqBjN_7gittype4game16typing_animationNtB2_15TypingAnimation17get_hacking_lines
FNDA:0,_RNvMNtNtCscZjyiejqBjN_7gittype4game16typing_animationNtB2_15TypingAnimation17set_rank_messages
FNDA:0,_RNvMNtNtCscZjyiejqBjN_7gittype4game16typing_animationNtB2_15TypingAnimation3new
FNDA:0,_RNvMNtNtCscZjyiejqBjN_7gittype4game16typing_animationNtB2_15TypingAnimation6update
FNF:9
FNH:0
DA:32,0
DA:33,0
DA:34,0
DA:35,0
DA:36,0
DA:37,0
DA:38,0
DA:39,0
DA:40,0
DA:42,0
DA:44,0
DA:45,0
DA:46,0
DA:47,0
DA:48,0
DA:49,0
DA:52,0
DA:53,0
DA:54,0
DA:56,0
DA:57,0
DA:58,0
DA:60,0
DA:63,0
DA:64,0
DA:65,0
DA:67,0
DA:68,0
DA:69,0
DA:70,0
DA:71,0
DA:72,0
DA:73,0
DA:74,0
DA:76,0
DA:77,0
DA:78,0
DA:79,0
DA:80,0
DA:83,0
DA:84,0
DA:85,0
DA:86,0
DA:87,0
DA:88,0
DA:92,0
DA:93,0
DA:94,0
DA:95,0
DA:96,0
DA:97,0
DA:100,0
DA:101,0
DA:102,0
DA:103,0
DA:105,0
DA:106,0
DA:107,0
DA:110,0
DA:111,0
DA:113,0
DA:114,0
DA:115,0
DA:117,0
DA:118,0
DA:119,0
DA:121,0
DA:122,0
DA:123,0
DA:125,0
DA:126,0
DA:127,0
DA:129,0
DA:130,0
DA:131,0
BRF:0
BRH:0
LF:75
LH:0
end_of_record
SF:/home/owner/.ghq/github.com/unhappychoice/gittype/src/main.rs
FN:65,_RNCNvCsjKAIpDDhoDZ_7gittype4main0B3_
FN:63,_RNvCsjKAIpDDhoDZ_7gittype4main
FN:65,_RNCNvCsbo6X0jOJBx_7gittype4main0B3_
FN:63,_RNvCsbo6X0jOJBx_7gittype4main
FNDA:0,_RNCNvCsjKAIpDDhoDZ_7gittype4main0B3_
FNDA:0,_RNvCsjKAIpDDhoDZ_7gittype4main
FNDA:0,_RNCNvCsbo6X0jOJBx_7gittype4main0B3_
FNDA:0,_RNvCsbo6X0jOJBx_7gittype4main
FNF:2
FNH:0
DA:63,0
DA:65,0
DA:66,0
DA:67,0
DA:69,0
DA:71,0
DA:73,0
DA:74,0
DA:75,0
DA:76,0
DA:77,0
DA:78,0
DA:79,0
DA:80,0
DA:81,0
DA:82,0
DA:83,0
DA:84,0
DA:85,0
DA:86,0
DA:90,0
DA:92,0
DA:94,0
DA:95,0
DA:96,0
DA:98,0
DA:99,0
DA:100,0
DA:102,0
DA:105,0
DA:106,0
DA:107,0
DA:108,0
DA:109,0
DA:112,0
DA:116,0
DA:117,0
DA:118,0
DA:120,0
DA:121,0
DA:122,0
DA:123,0
DA:124,0
DA:129,0
DA:130,0
DA:131,0
DA:132,0
DA:133,0
DA:134,0
DA:136,0
DA:140,0
DA:141,0
DA:142,0
DA:143,0
DA:144,0
DA:145,0
DA:147,0
DA:148,0
DA:149,0
DA:150,0
DA:151,0
DA:152,0
DA:153,0
DA:154,0
DA:155,0
DA:156,0
DA:159,0
DA:160,0
DA:161,0
DA:162,0
DA:163,0
DA:164,0
DA:165,0
DA:166,0
DA:167,0
DA:168,0
DA:169,0
DA:170,0
DA:173,0
DA:174,0
DA:175,0
DA:179,0
DA:180,0
BRF:0
BRH:0
LF:84
LH:0
end_of_record
SF:/home/owner/.ghq/github.com/unhappychoice/gittype/src/scoring/engine.rs
FN:119,_RNCNCNvMNtNtCs4PyLZvEkasu_7gittype7scoring6engineNtB6_13ScoringEngine7elapsed00Ba_
FN:119,_RNCNvMNtNtCs4PyLZvEkasu_7gittype7scoring6engineNtB4_13ScoringEngine7elapsed0B8_
FN:150,_RNCNvMNtNtCs4PyLZvEkasu_7gittype7scoring6engineNtB4_13ScoringEngine8mistakes0B8_
FN:164,_RNvMNtNtCs4PyLZvEkasu_7gittype7scoring6engineNtB2_13ScoringEngine11all_streaks
FN:65,_RNvMNtNtCs4PyLZvEkasu_7gittype7scoring6engineNtB2_13ScoringEngine11is_finished
FN:154,_RNvMNtNtCs4PyLZvEkasu_7gittype7scoring6engineNtB2_13ScoringEngine11total_chars
FN:159,_RNvMNtNtCs4PyLZvEkasu_7gittype7scoring6engineNtB2_13ScoringEngine13correct_chars
FN:69,_RNvMNtNtCs4PyLZvEkasu_7gittype7scoring6engineNtB2_13ScoringEngine16get_elapsed_time
FN:87,_RNvMNtNtCs4PyLZvEkasu_7gittype7scoring6engineNtB2_13ScoringEngine16record_keystroke
FN:403,_RNvMNtNtCs4PyLZvEkasu_7gittype7scoring6engineNtB2_13ScoringEngine17calculate_metrics
FN:173,_RNvMNtNtCs4PyLZvEkasu_7gittype7scoring6engineNtB2_13ScoringEngine17get_ranking_title
FN:83,_RNvMNtNtCs4PyLZvEkasu_7gittype7scoring6engineNtB2_13ScoringEngine18get_current_streak
FN:179,_RNvMNtNtCs4PyLZvEkasu_7gittype7scoring6engineNtB2_13ScoringEngine24get_ranking_title_string
FN:342,_RNvMNtNtCs4PyLZvEkasu_7gittype7scoring6engineNtB2_13ScoringEngine25calculate_challenge_score
FN:443,_RNvMNtNtCs4PyLZvEkasu_7gittype7scoring6engineNtB2_13ScoringEngine27calculate_real_time_metrics
FN:184,_RNvMNtNtCs4PyLZvEkasu_7gittype7scoring6engineNtB2_13ScoringEngine27get_ranking_title_for_score
FN:353,_RNvMNtNtCs4PyLZvEkasu_7gittype7scoring6engineNtB2_13ScoringEngine28calculate_score_from_metrics
FN:411,_RNvMNtNtCs4PyLZvEkasu_7gittype7scoring6engineNtB2_13ScoringEngine29calculate_metrics_with_status
FN:407,_RNvMNtNtCs4PyLZvEkasu_7gittype7scoring6engineNtB2_13ScoringEngine34calculate_metrics_with_skip_status
FN:267,_RNvMNtNtCs4PyLZvEkasu_7gittype7scoring6engineNtB2_13ScoringEngine34get_ranking_title_legacy_for_score
FN:189,_RNvMNtNtCs4PyLZvEkasu_7gittype7scoring6engineNtB2_13ScoringEngine34get_ranking_title_string_for_score
FN:123,_RNvMNtNtCs4PyLZvEkasu_7gittype7scoring6engineNtB2_13ScoringEngine3cpm
FN:27,_RNvMNtNtCs4PyLZvEkasu_7gittype7scoring6engineNtB2_13ScoringEngine3new
FN:134,_RNvMNtNtCs4PyLZvEkasu_7gittype7scoring6engineNtB2_13ScoringEngine3wpm
FN:44,_RNvMNtNtCs4PyLZvEkasu_7gittype7scoring6engineNtB2_13ScoringEngine5pause
FN:40,_RNvMNtNtCs4PyLZvEkasu_7gittype7scoring6engineNtB2_13ScoringEngine5start
FN:57,_RNvMNtNtCs4PyLZvEkasu_7gittype7scoring6engineNtB2_13ScoringEngine6finish
FN:50,_RNvMNtNtCs4PyLZvEkasu_7gittype7scoring6engineNtB2_13ScoringEngine6resume
FN:117,_RNvMNtNtCs4PyLZvEkasu_7gittype7scoring6engineNtB2_13ScoringEngine7elapsed
FN:139,_RNvMNtNtCs4PyLZvEkasu_7gittype7scoring6engineNtB2_13ScoringEngine8accuracy
FN:149,_RNvMNtNtCs4PyLZvEkasu_7gittype7scoring6engineNtB2_13ScoringEngine8mistakes
FN:486,_RNvXs_NtNtCs4PyLZvEkasu_7gittype7scoring6engineNtB4_13ScoringEngineNtNtNtCs66KPHxksi63_4core3ops5arith3Add3add
FN:273,_RNvMNtNtCs4PyLZvEkasu_7gittype7scoring6engineNtB2_13ScoringEngine20calculate_base_score
FN:320,_RNvMNtNtCs4PyLZvEkasu_7gittype7scoring6engineNtB2_13ScoringEngine20calculate_time_bonus
FN:337,_RNvMNtNtCs4PyLZvEkasu_7gittype7scoring6engineNtB2_13ScoringEngine25calculate_mistake_penalty
FN:303,_RNvMNtNtCs4PyLZvEkasu_7gittype7scoring6engineNtB2_13ScoringEngine34calculate_streak_consistency_bonus
FN:279,_RNvMNtNtCs4PyLZvEkasu_7gittype7scoring6engineNtB2_13ScoringEngine36calculate_realtime_consistency_bonus
FN:119,_RNCNCNvMNtNtCscZjyiejqBjN_7gittype7scoring6engineNtB6_13ScoringEngine7elapsed00Ba_
FN:119,_RNCNvMNtNtCscZjyiejqBjN_7gittype7scoring6engineNtB4_13ScoringEngine7elapsed0B8_
FN:150,_RNCNvMNtNtCscZjyiejqBjN_7gittype7scoring6engineNtB4_13ScoringEngine8mistakes0B8_
FN:164,_RNvMNtNtCscZjyiejqBjN_7gittype7scoring6engineNtB2_13ScoringEngine11all_streaks
FN:65,_RNvMNtNtCscZjyiejqBjN_7gittype7scoring6engineNtB2_13ScoringEngine11is_finished
FN:154,_RNvMNtNtCscZjyiejqBjN_7gittype7scoring6engineNtB2_13ScoringEngine11total_chars
FN:159,_RNvMNtNtCscZjyiejqBjN_7gittype7scoring6engineNtB2_13ScoringEngine13correct_chars
FN:69,_RNvMNtNtCscZjyiejqBjN_7gittype7scoring6engineNtB2_13ScoringEngine16get_elapsed_time
FN:87,_RNvMNtNtCscZjyiejqBjN_7gittype7scoring6engineNtB2_13ScoringEngine16record_keystroke
FN:403,_RNvMNtNtCscZjyiejqBjN_7gittype7scoring6engineNtB2_13ScoringEngine17calculate_metrics
FN:173,_RNvMNtNtCscZjyiejqBjN_7gittype7scoring6engineNtB2_13ScoringEngine17get_ranking_title
FN:83,_RNvMNtNtCscZjyiejqBjN_7gittype7scoring6engineNtB2_13ScoringEngine18get_current_streak
FN:273,_RNvMNtNtCscZjyiejqBjN_7gittype7scoring6engineNtB2_13ScoringEngine20calculate_base_score
FN:320,_RNvMNtNtCscZjyiejqBjN_7gittype7scoring6engineNtB2_13ScoringEngine20calculate_time_bonus
FN:179,_RNvMNtNtCscZjyiejqBjN_7gittype7scoring6engineNtB2_13ScoringEngine24get_ranking_title_string
FN:342,_RNvMNtNtCscZjyiejqBjN_7gittype7scoring6engineNtB2_13ScoringEngine25calculate_challenge_score
FN:337,_RNvMNtNtCscZjyiejqBjN_7gittype7scoring6engineNtB2_13ScoringEngine25calculate_mistake_penalty
FN:443,_RNvMNtNtCscZjyiejqBjN_7gittype7scoring6engineNtB2_13ScoringEngine27calculate_real_time_metrics
FN:184,_RNvMNtNtCscZjyiejqBjN_7gittype7scoring6engineNtB2_13ScoringEngine27get_ranking_title_for_score
FN:353,_RNvMNtNtCscZjyiejqBjN_7gittype7scoring6engineNtB2_13ScoringEngine28calculate_score_from_metrics
FN:411,_RNvMNtNtCscZjyiejqBjN_7gittype7scoring6engineNtB2_13ScoringEngine29calculate_metrics_with_status
FN:407,_RNvMNtNtCscZjyiejqBjN_7gittype7scoring6engineNtB2_13ScoringEngine34calculate_metrics_with_skip_status
FN:303,_RNvMNtNtCscZjyiejqBjN_7gittype7scoring6engineNtB2_13ScoringEngine34calculate_streak_consistency_bonus
FN:267,_RNvMNtNtCscZjyiejqBjN_7gittype7scoring6engineNtB2_13ScoringEngine34get_ranking_title_legacy_for_score
FN:189,_RNvMNtNtCscZjyiejqBjN_7gittype7scoring6engineNtB2_13ScoringEngine34get_ranking_title_string_for_score
FN:279,_RNvMNtNtCscZjyiejqBjN_7gittype7scoring6engineNtB2_13ScoringEngine36calculate_realtime_consistency_bonus
FN:123,_RNvMNtNtCscZjyiejqBjN_7gittype7scoring6engineNtB2_13ScoringEngine3cpm
FN:27,_RNvMNtNtCscZjyiejqBjN_7gittype7scoring6engineNtB2_13ScoringEngine3new
FN:134,_RNvMNtNtCscZjyiejqBjN_7gittype7scoring6engineNtB2_13ScoringEngine3wpm
FN:44,_RNvMNtNtCscZjyiejqBjN_7gittype7scoring6engineNtB2_13ScoringEngine5pause
FN:40,_RNvMNtNtCscZjyiejqBjN_7gittype7scoring6engineNtB2_13ScoringEngine5start
FN:57,_RNvMNtNtCscZjyiejqBjN_7gittype7scoring6engineNtB2_13ScoringEngine6finish
FN:50,_RNvMNtNtCscZjyiejqBjN_7gittype7scoring6engineNtB2_13ScoringEngine6resume
FN:117,_RNvMNtNtCscZjyiejqBjN_7gittype7scoring6engineNtB2_13ScoringEngine7elapsed
FN:139,_RNvMNtNtCscZjyiejqBjN_7gittype7scoring6engineNtB2_13ScoringEngine8accuracy
FN:149,_RNvMNtNtCscZjyiejqBjN_7gittype7scoring6engineNtB2_13ScoringEngine8mistakes
FN:486,_RNvXs_NtNtCscZjyiejqBjN_7gittype7scoring6engineNtB4_13ScoringEngineNtNtNtCs66KPHxksi63_4core3ops5arith3Add3add
FNDA:0,_RNCNCNvMNtNtCs4PyLZvEkasu_7gittype7scoring6engineNtB6_13ScoringEngine7elapsed00Ba_
FNDA:0,_RNCNvMNtNtCs4PyLZvEkasu_7gittype7scoring6engineNtB4_13ScoringEngine7elapsed0B8_
FNDA:52,_RNCNvMNtNtCs4PyLZvEkasu_7gittype7scoring6engineNtB4_13ScoringEngine8mistakes0B8_
FNDA:2,_RNvMNtNtCs4PyLZvEkasu_7gittype7scoring6engineNtB2_13ScoringEngine11all_streaks
FNDA:15,_RNvMNtNtCs4PyLZvEkasu_7gittype7scoring6engineNtB2_13ScoringEngine11is_finished
FNDA:3,_RNvMNtNtCs4PyLZvEkasu_7gittype7scoring6engineNtB2_13ScoringEngine11total_chars
FNDA:4,_RNvMNtNtCs4PyLZvEkasu_7gittype7scoring6engineNtB2_13ScoringEngine13correct_chars
FNDA:0,_RNvMNtNtCs4PyLZvEkasu_7gittype7scoring6engineNtB2_13ScoringEngine16get_elapsed_time
FNDA:13,_RNvMNtNtCs4PyLZvEkasu_7gittype7scoring6engineNtB2_13ScoringEngine16record_keystroke
FNDA:2,_RNvMNtNtCs4PyLZvEkasu_7gittype7scoring6engineNtB2_13ScoringEngine17calculate_metrics
FNDA:0,_RNvMNtNtCs4PyLZvEkasu_7gittype7scoring6engineNtB2_13ScoringEngine17get_ranking_title
FNDA:0,_RNvMNtNtCs4PyLZvEkasu_7gittype7scoring6engineNtB2_13ScoringEngine18get_current_streak
FNDA:0,_RNvMNtNtCs4PyLZvEkasu_7gittype7scoring6engineNtB2_13ScoringEngine24get_ranking_title_string
FNDA:2,_RNvMNtNtCs4PyLZvEkasu_7gittype7scoring6engineNtB2_13ScoringEngine25calculate_challenge_score
FNDA:0,_RNvMNtNtCs4PyLZvEkasu_7gittype7scoring6engineNtB2_13ScoringEngine27calculate_real_time_metrics
FNDA:65,_RNvMNtNtCs4PyLZvEkasu_7gittype7scoring6engineNtB2_13ScoringEngine27get_ranking_title_for_score
FNDA:65,_RNvMNtNtCs4PyLZvEkasu_7gittype7scoring6engineNtB2_13ScoringEngine28calculate_score_from_metrics
FNDA:2,_RNvMNtNtCs4PyLZvEkasu_7gittype7scoring6engineNtB2_13ScoringEngine29calculate_metrics_with_status
FNDA:0,_RNvMNtNtCs4PyLZvEkasu_7gittype7scoring6engineNtB2_13ScoringEngine34calculate_metrics_with_skip_status
FNDA:0,_RNvMNtNtCs4PyLZvEkasu_7gittype7scoring6engineNtB2_13ScoringEngine34get_ranking_title_legacy_for_score
FNDA:0,_RNvMNtNtCs4PyLZvEkasu_7gittype7scoring6engineNtB2_13ScoringEngine34get_ranking_title_string_for_score
FNDA:6,_RNvMNtNtCs4PyLZvEkasu_7gittype7scoring6engineNtB2_13ScoringEngine3cpm
FNDA:3,_RNvMNtNtCs4PyLZvEkasu_7gittype7scoring6engineNtB2_13ScoringEngine3new
FNDA:2,_RNvMNtNtCs4PyLZvEkasu_7gittype7scoring6engineNtB2_13ScoringEngine3wpm
FNDA:0,_RNvMNtNtCs4PyLZvEkasu_7gittype7scoring6engineNtB2_13ScoringEngine5pause
FNDA:3,_RNvMNtNtCs4PyLZvEkasu_7gittype7scoring6engineNtB2_13ScoringEngine5start
FNDA:3,_RNvMNtNtCs4PyLZvEkasu_7gittype7scoring6engineNtB2_13ScoringEngine6finish
FNDA:3,_RNvMNtNtCs4PyLZvEkasu_7gittype7scoring6engineNtB2_13ScoringEngine6resume
FNDA:10,_RNvMNtNtCs4PyLZvEkasu_7gittype7scoring6engineNtB2_13ScoringEngine7elapsed
FNDA:4,_RNvMNtNtCs4PyLZvEkasu_7gittype7scoring6engineNtB2_13ScoringEngine8accuracy
FNDA:8,_RNvMNtNtCs4PyLZvEkasu_7gittype7scoring6engineNtB2_13ScoringEngine8mistakes
FNDA:1,_RNvXs_NtNtCs4PyLZvEkasu_7gittype7scoring6engineNtB4_13ScoringEngineNtNtNtCs66KPHxksi63_4core3ops5arith3Add3add
FNDA:0,_RNvMNtNtCs4PyLZvEkasu_7gittype7scoring6engineNtB2_13ScoringEngine20calculate_base_score
FNDA:0,_RNvMNtNtCs4PyLZvEkasu_7gittype7scoring6engineNtB2_13ScoringEngine20calculate_time_bonus
FNDA:0,_RNvMNtNtCs4PyLZvEkasu_7gittype7scoring6engineNtB2_13ScoringEngine25calculate_mistake_penalty
FNDA:0,_RNvMNtNtCs4PyLZvEkasu_7gittype7scoring6engineNtB2_13ScoringEngine34calculate_streak_consistency_bonus
FNDA:0,_RNvMNtNtCs4PyLZvEkasu_7gittype7scoring6engineNtB2_13ScoringEngine36calculate_realtime_consistency_bonus
FNDA:0,_RNCNCNvMNtNtCscZjyiejqBjN_7gittype7scoring6engineNtB6_13ScoringEngine7elapsed00Ba_
FNDA:0,_RNCNvMNtNtCscZjyiejqBjN_7gittype7scoring6engineNtB4_13ScoringEngine7elapsed0B8_
FNDA:0,_RNCNvMNtNtCscZjyiejqBjN_7gittype7scoring6engineNtB4_13ScoringEngine8mistakes0B8_
FNDA:0,_RNvMNtNtCscZjyiejqBjN_7gittype7scoring6engineNtB2_13ScoringEngine11all_streaks
FNDA:0,_RNvMNtNtCscZjyiejqBjN_7gittype7scoring6engineNtB2_13ScoringEngine11is_finished
FNDA:0,_RNvMNtNtCscZjyiejqBjN_7gittype7scoring6engineNtB2_13ScoringEngine11total_chars
FNDA:0,_RNvMNtNtCscZjyiejqBjN_7gittype7scoring6engineNtB2_13ScoringEngine13correct_chars
FNDA:0,_RNvMNtNtCscZjyiejqBjN_7gittype7scoring6engineNtB2_13ScoringEngine16get_elapsed_time
FNDA:0,_RNvMNtNtCscZjyiejqBjN_7gittype7scoring6engineNtB2_13ScoringEngine16record_keystroke
FNDA:0,_RNvMNtNtCscZjyiejqBjN_7gittype7scoring6engineNtB2_13ScoringEngine17calculate_metrics
FNDA:0,_RNvMNtNtCscZjyiejqBjN_7gittype7scoring6engineNtB2_13ScoringEngine17get_ranking_title
FNDA:0,_RNvMNtNtCscZjyiejqBjN_7gittype7scoring6engineNtB2_13ScoringEngine18get_current_streak
FNDA:0,_RNvMNtNtCscZjyiejqBjN_7gittype7scoring6engineNtB2_13ScoringEngine20calculate_base_score
FNDA:0,_RNvMNtNtCscZjyiejqBjN_7gittype7scoring6engineNtB2_13ScoringEngine20calculate_time_bonus
FNDA:0,_RNvMNtNtCscZjyiejqBjN_7gittype7scoring6engineNtB2_13ScoringEngine24get_ranking_title_string
FNDA:0,_RNvMNtNtCscZjyiejqBjN_7gittype7scoring6engineNtB2_13ScoringEngine25calculate_challenge_score
FNDA:0,_RNvMNtNtCscZjyiejqBjN_7gittype7scoring6engineNtB2_13ScoringEngine25calculate_mistake_penalty
FNDA:0,_RNvMNtNtCscZjyiejqBjN_7gittype7scoring6engineNtB2_13ScoringEngine27calculate_real_time_metrics
FNDA:0,_RNvMNtNtCscZjyiejqBjN_7gittype7scoring6engineNtB2_13ScoringEngine27get_ranking_title_for_score
FNDA:0,_RNvMNtNtCscZjyiejqBjN_7gittype7scoring6engineNtB2_13ScoringEngine28calculate_score_from_metrics
FNDA:0,_RNvMNtNtCscZjyiejqBjN_7gittype7scoring6engineNtB2_13ScoringEngine29calculate_metrics_with_status
FNDA:0,_RNvMNtNtCscZjyiejqBjN_7gittype7scoring6engineNtB2_13ScoringEngine34calculate_metrics_with_skip_status
FNDA:0,_RNvMNtNtCscZjyiejqBjN_7gittype7scoring6engineNtB2_13ScoringEngine34calculate_streak_consistency_bonus
FNDA:0,_RNvMNtNtCscZjyiejqBjN_7gittype7scoring6engineNtB2_13ScoringEngine34get_ranking_title_legacy_for_score
FNDA:0,_RNvMNtNtCscZjyiejqBjN_7gittype7scoring6engineNtB2_13ScoringEngine34get_ranking_title_string_for_score
FNDA:0,_RNvMNtNtCscZjyiejqBjN_7gittype7scoring6engineNtB2_13ScoringEngine36calculate_realtime_consistency_bonus
FNDA:0,_RNvMNtNtCscZjyiejqBjN_7gittype7scoring6engineNtB2_13ScoringEngine3cpm
FNDA:0,_RNvMNtNtCscZjyiejqBjN_7gittype7scoring6engineNtB2_13ScoringEngine3new
FNDA:0,_RNvMNtNtCscZjyiejqBjN_7gittype7scoring6engineNtB2_13ScoringEngine3wpm
FNDA:0,_RNvMNtNtCscZjyiejqBjN_7gittype7scoring6engineNtB2_13ScoringEngine5pause
FNDA:0,_RNvMNtNtCscZjyiejqBjN_7gittype7scoring6engineNtB2_13ScoringEngine5start
FNDA:0,_RNvMNtNtCscZjyiejqBjN_7gittype7scoring6engineNtB2_13ScoringEngine6finish
FNDA:0,_RNvMNtNtCscZjyiejqBjN_7gittype7scoring6engineNtB2_13ScoringEngine6resume
FNDA:0,_RNvMNtNtCscZjyiejqBjN_7gittype7scoring6engineNtB2_13ScoringEngine7elapsed
FNDA:0,_RNvMNtNtCscZjyiejqBjN_7gittype7scoring6engineNtB2_13ScoringEngine8accuracy
FNDA:0,_RNvMNtNtCscZjyiejqBjN_7gittype7scoring6engineNtB2_13ScoringEngine8mistakes
FNDA:0,_RNvXs_NtNtCscZjyiejqBjN_7gittype7scoring6engineNtB4_13ScoringEngineNtNtNtCs66KPHxksi63_4core3ops5arith3Add3add
FNF:37
FNH:21
DA:27,3
DA:28,3
DA:29,3
DA:30,3
DA:31,3
DA:32,3
DA:33,3
DA:34,3
DA:35,3
DA:36,3
DA:37,3
DA:38,3
DA:40,3
DA:41,3
DA:42,3
DA:44,0
DA:45,0
DA:46,0
DA:47,0
DA:48,0
DA:50,3
DA:51,3
DA:52,0
DA:53,0
DA:54,3
DA:55,3
DA:57,3
DA:59,3
DA:60,3
DA:61,3
DA:62,3
DA:63,3
DA:65,15
DA:66,15
DA:67,15
DA:69,0
DA:70,0
DA:71,0
DA:72,0
DA:73,0
DA:75,0
DA:77,0
DA:79,0
DA:81,0
DA:83,0
DA:84,0
DA:85,0
DA:87,13
DA:89,13
DA:90,0
DA:91,13
DA:93,13
DA:94,13
DA:96,0
DA:99,13
DA:100,13
DA:101,13
DA:102,13
DA:103,13
DA:104,13
DA:106,13
DA:108,13
DA:109,11
DA:110,11
DA:111,2
DA:112,2
DA:113,2
DA:114,13
DA:117,10
DA:118,10
DA:119,10
DA:120,10
DA:123,6
DA:124,6
DA:125,0
DA:126,6
DA:128,6
DA:129,6
DA:130,6
DA:131,6
DA:134,2
DA:135,2
DA:136,2
DA:139,4
DA:140,4
DA:141,0
DA:142,4
DA:144,4
DA:145,4
DA:146,4
DA:149,8
DA:150,52
DA:151,8
DA:154,3
DA:155,3
DA:156,3
DA:159,4
DA:160,4
DA:161,4
DA:164,2
DA:165,2
DA:166,2
DA:167,0
DA:168,2
DA:169,2
DA:170,2
DA:173,0
DA:174,0
DA:175,0
DA:176,0
DA:179,0
DA:180,0
DA:181,0
DA:184,65
DA:185,65
DA:186,65
DA:189,0
DA:190,0
DA:192,0
DA:193,0
DA:194,0
DA:195,0
DA:196,0
DA:197,0
DA:198,0
DA:199,0
DA:200,0
DA:201,0
DA:202,0
DA:203,0
DA:206,0
DA:207,0
DA:208,0
DA:209,0
DA:210,0
DA:211,0
DA:212,0
DA:213,0
DA:214,0
DA:215,0
DA:216,0
DA:217,0
DA:220,0
DA:221,0
DA:222,0
DA:223,0
DA:224,0
DA:225,0
DA:226,0
DA:227,0
DA:228,0
DA:229,0
DA:230,0
DA:231,0
DA:234,0
DA:235,0
DA:236,0
DA:237,0
DA:238,0
DA:239,0
DA:240,0
DA:241,0
DA:242,0
DA:243,0
DA:244,0
DA:245,0
DA:248,0
DA:249,0
DA:250,0
DA:251,0
DA:252,0
DA:253,0
DA:254,0
DA:255,0
DA:256,0
DA:257,0
DA:258,0
DA:259,0
DA:260,0
DA:261,0
DA:262,0
DA:264,0
DA:267,0
DA:268,0
DA:269,0
DA:273,0
DA:274,0
DA:275,0
DA:279,0
DA:280,0
DA:281,0
DA:282,0
DA:283,0
DA:284,0
DA:286,0
DA:287,0
DA:288,0
DA:289,0
DA:291,0
DA:294,0
DA:295,0
DA:296,0
DA:298,0
DA:299,0
DA:303,0
DA:304,0
DA:305,0
DA:306,0
DA:307,0
DA:309,0
DA:310,0
DA:311,0
DA:314,0
DA:315,0
DA:316,0
DA:320,0
DA:321,0
DA:322,0
DA:323,0
DA:324,0
DA:326,0
DA:327,0
DA:328,0
DA:329,0
DA:331,0
DA:333,0
DA:337,0
DA:338,0
DA:339,0
DA:342,2
DA:343,2
DA:344,2
DA:345,2
DA:346,2
DA:347,2
DA:348,2
DA:350,2
DA:353,65
DA:354,65
DA:355,65
DA:356,65
DA:357,65
DA:358,65
DA:359,65
DA:361,65
DA:364,65
DA:365,65
DA:366,0
DA:367,65
DA:369,2
DA:370,2
DA:371,2
DA:372,63
DA:374,0
DA:377,63
DA:378,63
DA:379,63
DA:381,65
DA:384,65
DA:385,0
DA:386,0
DA:387,0
DA:389,0
DA:392,65
DA:396,65
DA:399,65
DA:400,65
DA:401,65
DA:403,2
DA:404,2
DA:405,2
DA:407,0
DA:408,0
DA:409,0
DA:411,2
DA:412,2
DA:413,2
DA:414,2
DA:415,2
DA:416,2
DA:417,0
DA:418,0
DA:419,0
DA:420,2
DA:422,2
DA:423,2
DA:424,2
DA:425,2
DA:427,2
DA:428,2
DA:429,2
DA:430,2
DA:431,2
DA:432,2
DA:433,2
DA:434,2
DA:435,2
DA:436,2
DA:437,2
DA:438,2
DA:439,2
DA:443,0
DA:444,0
DA:445,0
DA:446,0
DA:447,0
DA:449,0
DA:450,0
DA:451,0
DA:454,0
DA:455,0
DA:456,0
DA:457,0
DA:458,0
DA:459,0
DA:460,0
DA:461,0
DA:463,0
DA:464,0
DA:465,0
DA:466,0
DA:468,0
DA:469,0
DA:470,0
DA:471,0
DA:472,0
DA:473,0
DA:474,0
DA:475,0
DA:476,0
DA:477,0
DA:478,0
DA:479,0
DA:480,0
DA:486,1
DA:488,1
DA:489,1
DA:492,1
DA:493,1
DA:496,1
DA:497,1
DA:498,0
DA:499,0
DA:503,1
DA:504,1
DA:505,0
DA:506,0
DA:510,1
DA:511,0
DA:512,1
DA:513,0
DA:515,1
DA:518,1
DA:519,1
DA:520,1
DA:521,1
DA:522,1
DA:523,1
DA:524,1
DA:525,1
DA:526,1
DA:527,1
DA:528,1
BRF:0
BRH:0
LF:366
LH:169
end_of_record
SF:/home/owner/.ghq/github.com/unhappychoice/gittype/src/scoring/ranking_title.rs
FN:21,_RNvMNtNtCs4PyLZvEkasu_7gittype7scoring13ranking_titleNtB2_11RankingTier13color_palette
FN:67,_RNvMs_NtNtCs4PyLZvEkasu_7gittype7scoring13ranking_titleNtB4_12RankingTitle10all_titles
FN:62,_RNvMs_NtNtCs4PyLZvEkasu_7gittype7scoring13ranking_titleNtB4_12RankingTitle13color_palette
FN:56,_RNvMs_NtNtCs4PyLZvEkasu_7gittype7scoring13ranking_titleNtB4_12RankingTitle14contains_score
FN:44,_RNvMs_NtNtCs4PyLZvEkasu_7gittype7scoring13ranking_titleNtB4_12RankingTitle4name
FN:50,_RNvMs_NtNtCs4PyLZvEkasu_7gittype7scoring13ranking_titleNtB4_12RankingTitle4tier
FN:152,_RNvMs_NtNtCs4PyLZvEkasu_7gittype7scoring13ranking_titleNtB4_12RankingTitle9for_score
FN:34,_RINvMs_NtNtCs4PyLZvEkasu_7gittype7scoring13ranking_titleNtB5_12RankingTitle3newReEB9_
FN:155,_RNCNvMs_NtNtCs4PyLZvEkasu_7gittype7scoring13ranking_titleNtB6_12RankingTitle9for_score0Ba_
FN:156,_RNCNvMs_NtNtCs4PyLZvEkasu_7gittype7scoring13ranking_titleNtB6_12RankingTitle9for_scores_0Ba_
FN:34,_RINvMs_NtCs6ZVsxm6bH5c_25generate_all_ascii_titles13ranking_titleNtB5_12RankingTitle3newReEB7_
FN:155,_RNCNvMs_NtCs6ZVsxm6bH5c_25generate_all_ascii_titles13ranking_titleNtB6_12RankingTitle9for_score0B8_
FN:156,_RNCNvMs_NtCs6ZVsxm6bH5c_25generate_all_ascii_titles13ranking_titleNtB6_12RankingTitle9for_scores_0B8_
FN:195,_RNvNtNtCs6ZVsxm6bH5c_25generate_all_ascii_titles13ranking_title5testss_14test_for_score
FN:186,_RNvNtNtCs6ZVsxm6bH5c_25generate_all_ascii_titles13ranking_title5testss_18test_color_palette
FN:177,_RNvNtNtCs6ZVsxm6bH5c_25generate_all_ascii_titles13ranking_title5testss_19test_contains_score
FN:219,_RNvNtNtCs6ZVsxm6bH5c_25generate_all_ascii_titles13ranking_title5testss_22test_no_gaps_in_ranges
FN:207,_RNvNtNtCs6ZVsxm6bH5c_25generate_all_ascii_titles13ranking_title5testss_24test_all_titles_coverage
FN:168,_RNvNtNtCs6ZVsxm6bH5c_25generate_all_ascii_titles13ranking_title5testss_27test_ranking_title_creation
FN:21,_RNvMNtCs6ZVsxm6bH5c_25generate_all_ascii_titles13ranking_titleNtB2_11RankingTier13color_palette
FN:67,_RNvMs_NtCs6ZVsxm6bH5c_25generate_all_ascii_titles13ranking_titleNtB4_12RankingTitle10all_titles
FN:62,_RNvMs_NtCs6ZVsxm6bH5c_25generate_all_ascii_titles13ranking_titleNtB4_12RankingTitle13color_palette
FN:56,_RNvMs_NtCs6ZVsxm6bH5c_25generate_all_ascii_titles13ranking_titleNtB4_12RankingTitle14contains_score
FN:44,_RNvMs_NtCs6ZVsxm6bH5c_25generate_all_ascii_titles13ranking_titleNtB4_12RankingTitle4name
FN:50,_RNvMs_NtCs6ZVsxm6bH5c_25generate_all_ascii_titles13ranking_titleNtB4_12RankingTitle4tier
FN:152,_RNvMs_NtCs6ZVsxm6bH5c_25generate_all_ascii_titles13ranking_titleNtB4_12RankingTitle9for_score
FN:34,_RINvMs_NtCsfSkhsc1jHZS_25generate_all_ascii_titles13ranking_titleNtB5_12RankingTitle3newReEB7_
FN:155,_RNCNvMs_NtCsfSkhsc1jHZS_25generate_all_ascii_titles13ranking_titleNtB6_12RankingTitle9for_score0B8_
FN:156,_RNCNvMs_NtCsfSkhsc1jHZS_25generate_all_ascii_titles13ranking_titleNtB6_12RankingTitle9for_scores_0B8_
FN:56,_RNvMs_NtCsfSkhsc1jHZS_25generate_all_ascii_titles13ranking_titleNtB4_12RankingTitle14contains_score
FN:50,_RNvMs_NtCsfSkhsc1jHZS_25generate_all_ascii_titles13ranking_titleNtB4_12RankingTitle4tier
FN:152,_RNvMs_NtCsfSkhsc1jHZS_25generate_all_ascii_titles13ranking_titleNtB4_12RankingTitle9for_score
FN:21,_RNvMNtCsfSkhsc1jHZS_25generate_all_ascii_titles13ranking_titleNtB2_11RankingTier13color_palette
FN:67,_RNvMs_NtCsfSkhsc1jHZS_25generate_all_ascii_titles13ranking_titleNtB4_12RankingTitle10all_titles
FN:62,_RNvMs_NtCsfSkhsc1jHZS_25generate_all_ascii_titles13ranking_titleNtB4_12RankingTitle13color_palette
FN:44,_RNvMs_NtCsfSkhsc1jHZS_25generate_all_ascii_titles13ranking_titleNtB4_12RankingTitle4name
FN:34,_RINvMs_NtNtCscZjyiejqBjN_7gittype7scoring13ranking_titleNtB5_12RankingTitle3newReEB9_
FN:155,_RNCNvMs_NtNtCscZjyiejqBjN_7gittype7scoring13ranking_titleNtB6_12RankingTitle9for_score0Ba_
FN:156,_RNCNvMs_NtNtCscZjyiejqBjN_7gittype7scoring13ranking_titleNtB6_12RankingTitle9for_scores_0Ba_
FN:21,_RNvMNtNtCscZjyiejqBjN_7gittype7scoring13ranking_titleNtB2_11RankingTier13color_palette
FN:67,_RNvMs_NtNtCscZjyiejqBjN_7gittype7scoring13ranking_titleNtB4_12RankingTitle10all_titles
FN:62,_RNvMs_NtNtCscZjyiejqBjN_7gittype7scoring13ranking_titleNtB4_12RankingTitle13color_palette
FN:56,_RNvMs_NtNtCscZjyiejqBjN_7gittype7scoring13ranking_titleNtB4_12RankingTitle14contains_score
FN:44,_RNvMs_NtNtCscZjyiejqBjN_7gittype7scoring13ranking_titleNtB4_12RankingTitle4name
FN:50,_RNvMs_NtNtCscZjyiejqBjN_7gittype7scoring13ranking_titleNtB4_12RankingTitle4tier
FN:152,_RNvMs_NtNtCscZjyiejqBjN_7gittype7scoring13ranking_titleNtB4_12RankingTitle9for_score
FN:195,_RNvNtNtNtCscZjyiejqBjN_7gittype7scoring13ranking_title5testss_14test_for_score
FN:186,_RNvNtNtNtCscZjyiejqBjN_7gittype7scoring13ranking_title5testss_18test_color_palette
FN:177,_RNvNtNtNtCscZjyiejqBjN_7gittype7scoring13ranking_title5testss_19test_contains_score
FN:219,_RNvNtNtNtCscZjyiejqBjN_7gittype7scoring13ranking_title5testss_22test_no_gaps_in_ranges
FN:207,_RNvNtNtNtCscZjyiejqBjN_7gittype7scoring13ranking_title5testss_24test_all_titles_coverage
FN:168,_RNvNtNtNtCscZjyiejqBjN_7gittype7scoring13ranking_title5testss_27test_ranking_title_creation
FNDA:0,_RNvMNtNtCs4PyLZvEkasu_7gittype7scoring13ranking_titleNtB2_11RankingTier13color_palette
FNDA:69,_RNvMs_NtNtCs4PyLZvEkasu_7gittype7scoring13ranking_titleNtB4_12RankingTitle10all_titles
FNDA:0,_RNvMs_NtNtCs4PyLZvEkasu_7gittype7scoring13ranking_titleNtB4_12RankingTitle13color_palette
FNDA:2100,_RNvMs_NtNtCs4PyLZvEkasu_7gittype7scoring13ranking_titleNtB4_12RankingTitle14contains_score
FNDA:337,_RNvMs_NtNtCs4PyLZvEkasu_7gittype7scoring13ranking_titleNtB4_12RankingTitle4name
FNDA:63,_RNvMs_NtNtCs4PyLZvEkasu_7gittype7scoring13ranking_titleNtB4_12RankingTitle4tier
FNDA:65,_RNvMs_NtNtCs4PyLZvEkasu_7gittype7scoring13ranking_titleNtB4_12RankingTitle9for_score
FNDA:4347,_RINvMs_NtNtCs4PyLZvEkasu_7gittype7scoring13ranking_titleNtB5_12RankingTitle3newReEB9_
FNDA:2100,_RNCNvMs_NtNtCs4PyLZvEkasu_7gittype7scoring13ranking_titleNtB6_12RankingTitle9for_score0Ba_
FNDA:0,_RNCNvMs_NtNtCs4PyLZvEkasu_7gittype7scoring13ranking_titleNtB6_12RankingTitle9for_scores_0Ba_
FNDA:760,_RINvMs_NtCs6ZVsxm6bH5c_25generate_all_ascii_titles13ranking_titleNtB5_12RankingTitle3newReEB7_
FNDA:322,_RNCNvMs_NtCs6ZVsxm6bH5c_25generate_all_ascii_titles13ranking_titleNtB6_12RankingTitle9for_score0B8_
FNDA:0,_RNCNvMs_NtCs6ZVsxm6bH5c_25generate_all_ascii_titles13ranking_titleNtB6_12RankingTitle9for_scores_0B8_
FNDA:1,_RNvNtNtCs6ZVsxm6bH5c_25generate_all_ascii_titles13ranking_title5testss_14test_for_score
FNDA:1,_RNvNtNtCs6ZVsxm6bH5c_25generate_all_ascii_titles13ranking_title5testss_18test_color_palette
FNDA:1,_RNvNtNtCs6ZVsxm6bH5c_25generate_all_ascii_titles13ranking_title5testss_19test_contains_score
FNDA:1,_RNvNtNtCs6ZVsxm6bH5c_25generate_all_ascii_titles13ranking_title5testss_22test_no_gaps_in_ranges
FNDA:1,_RNvNtNtCs6ZVsxm6bH5c_25generate_all_ascii_titles13ranking_title5testss_24test_all_titles_coverage
FNDA:1,_RNvNtNtCs6ZVsxm6bH5c_25generate_all_ascii_titles13ranking_title5testss_27test_ranking_title_creation
FNDA:2,_RNvMNtCs6ZVsxm6bH5c_25generate_all_ascii_titles13ranking_titleNtB2_11RankingTier13color_palette
FNDA:12,_RNvMs_NtCs6ZVsxm6bH5c_25generate_all_ascii_titles13ranking_titleNtB4_12RankingTitle10all_titles
FNDA:2,_RNvMs_NtCs6ZVsxm6bH5c_25generate_all_ascii_titles13ranking_titleNtB4_12RankingTitle13color_palette
FNDA:326,_RNvMs_NtCs6ZVsxm6bH5c_25generate_all_ascii_titles13ranking_titleNtB4_12RankingTitle14contains_score
FNDA:11,_RNvMs_NtCs6ZVsxm6bH5c_25generate_all_ascii_titles13ranking_titleNtB4_12RankingTitle4name
FNDA:1,_RNvMs_NtCs6ZVsxm6bH5c_25generate_all_ascii_titles13ranking_titleNtB4_12RankingTitle4tier
FNDA:10,_RNvMs_NtCs6ZVsxm6bH5c_25generate_all_ascii_titles13ranking_titleNtB4_12RankingTitle9for_score
FNDA:0,_RINvMs_NtCsfSkhsc1jHZS_25generate_all_ascii_titles13ranking_titleNtB5_12RankingTitle3newReEB7_
FNDA:0,_RNCNvMs_NtCsfSkhsc1jHZS_25generate_all_ascii_titles13ranking_titleNtB6_12RankingTitle9for_score0B8_
FNDA:0,_RNCNvMs_NtCsfSkhsc1jHZS_25generate_all_ascii_titles13ranking_titleNtB6_12RankingTitle9for_scores_0B8_
FNDA:0,_RNvMs_NtCsfSkhsc1jHZS_25generate_all_ascii_titles13ranking_titleNtB4_12RankingTitle14contains_score
FNDA:0,_RNvMs_NtCsfSkhsc1jHZS_25generate_all_ascii_titles13ranking_titleNtB4_12RankingTitle4tier
FNDA:0,_RNvMs_NtCsfSkhsc1jHZS_25generate_all_ascii_titles13ranking_titleNtB4_12RankingTitle9for_score
FNDA:0,_RNvMNtCsfSkhsc1jHZS_25generate_all_ascii_titles13ranking_titleNtB2_11RankingTier13color_palette
FNDA:0,_RNvMs_NtCsfSkhsc1jHZS_25generate_all_ascii_titles13ranking_titleNtB4_12RankingTitle10all_titles
FNDA:0,_RNvMs_NtCsfSkhsc1jHZS_25generate_all_ascii_titles13ranking_titleNtB4_12RankingTitle13color_palette
FNDA:0,_RNvMs_NtCsfSkhsc1jHZS_25generate_all_ascii_titles13ranking_titleNtB4_12RankingTitle4name
FNDA:760,_RINvMs_NtNtCscZjyiejqBjN_7gittype7scoring13ranking_titleNtB5_12RankingTitle3newReEB9_
FNDA:322,_RNCNvMs_NtNtCscZjyiejqBjN_7gittype7scoring13ranking_titleNtB6_12RankingTitle9for_score0Ba_
FNDA:0,_RNCNvMs_NtNtCscZjyiejqBjN_7gittype7scoring13ranking_titleNtB6_12RankingTitle9for_scores_0Ba_
FNDA:2,_RNvMNtNtCscZjyiejqBjN_7gittype7scoring13ranking_titleNtB2_11RankingTier13color_palette
FNDA:12,_RNvMs_NtNtCscZjyiejqBjN_7gittype7scoring13ranking_titleNtB4_12RankingTitle10all_titles
FNDA:2,_RNvMs_NtNtCscZjyiejqBjN_7gittype7scoring13ranking_titleNtB4_12RankingTitle13color_palette
FNDA:326,_RNvMs_NtNtCscZjyiejqBjN_7gittype7scoring13ranking_titleNtB4_12RankingTitle14contains_score
FNDA:11,_RNvMs_NtNtCscZjyiejqBjN_7gittype7scoring13ranking_titleNtB4_12RankingTitle4name
FNDA:1,_RNvMs_NtNtCscZjyiejqBjN_7gittype7scoring13ranking_titleNtB4_12RankingTitle4tier
FNDA:10,_RNvMs_NtNtCscZjyiejqBjN_7gittype7scoring13ranking_titleNtB4_12RankingTitle9for_score
FNDA:1,_RNvNtNtNtCscZjyiejqBjN_7gittype7scoring13ranking_title5testss_14test_for_score
FNDA:1,_RNvNtNtNtCscZjyiejqBjN_7gittype7scoring13ranking_title5testss_18test_color_palette
FNDA:1,_RNvNtNtNtCscZjyiejqBjN_7gittype7scoring13ranking_title5testss_19test_contains_score
FNDA:1,_RNvNtNtNtCscZjyiejqBjN_7gittype7scoring13ranking_title5testss_22test_no_gaps_in_ranges
FNDA:1,_RNvNtNtNtCscZjyiejqBjN_7gittype7scoring13ranking_title5testss_24test_all_titles_coverage
FNDA:1,_RNvNtNtNtCscZjyiejqBjN_7gittype7scoring13ranking_title5testss_27test_ranking_title_creation
FNF:16
FNH:15
DA:21,4
DA:22,4
DA:23,2
DA:24,0
DA:25,0
DA:26,2
DA:27,0
DA:29,4
DA:34,5867
DA:35,5867
DA:36,5867
DA:37,5867
DA:38,5867
DA:39,5867
DA:40,5867
DA:41,5867
DA:44,359
DA:45,359
DA:46,359
DA:50,65
DA:51,65
DA:52,65
DA:56,2752
DA:57,2752
DA:58,2752
DA:59,2752
DA:62,4
DA:63,4
DA:64,4
DA:67,93
DA:68,93
DA:70,93
DA:71,93
DA:72,93
DA:73,93
DA:74,93
DA:75,93
DA:76,93
DA:77,93
DA:78,93
DA:79,93
DA:80,93
DA:81,93
DA:83,93
DA:84,93
DA:85,93
DA:86,93
DA:87,93
DA:88,93
DA:89,93
DA:90,93
DA:91,93
DA:92,93
DA:93,93
DA:94,93
DA:96,93
DA:97,93
DA:98,93
DA:99,93
DA:100,93
DA:101,93
DA:102,93
DA:103,93
DA:104,93
DA:105,93
DA:106,93
DA:107,93
DA:109,93
DA:110,93
DA:111,93
DA:112,93
DA:113,93
DA:114,93
DA:115,93
DA:116,93
DA:117,93
DA:118,93
DA:119,93
DA:120,93
DA:122,93
DA:123,93
DA:124,93
DA:125,93
DA:127,93
DA:131,93
DA:132,93
DA:133,93
DA:134,93
DA:135,93
DA:136,93
DA:137,93
DA:139,93
DA:143,93
DA:144,93
DA:145,93
DA:146,93
DA:148,93
DA:152,85
DA:153,85
DA:154,85
DA:155,2744
DA:156,85
DA:158,0
DA:159,0
DA:160,85
DA:168,2
DA:169,2
DA:170,2
DA:171,2
DA:172,2
DA:173,2
DA:174,2
DA:177,2
DA:178,2
DA:179,2
DA:180,2
DA:181,2
DA:182,2
DA:183,2
DA:186,2
DA:187,2
DA:188,2
DA:190,2
DA:191,2
DA:192,2
DA:195,2
DA:196,2
DA:197,2
DA:199,2
DA:200,2
DA:202,2
DA:203,2
DA:204,2
DA:207,2
DA:208,2
DA:209,2
DA:212,16
DA:213,14
DA:214,14
DA:216,2
DA:219,2
DA:220,2
DA:221,124
DA:222,124
DA:223,124
DA:224,124
DA:225,124
DA:227,0
DA:228,0
DA:230,0
DA:234,2
BRF:0
BRH:0
LF:153
LH:144
end_of_record
SF:/home/owner/.ghq/github.com/unhappychoice/gittype/src/sharing.rs
FN:95,_RNCNvMs_NtCs4PyLZvEkasu_7gittype7sharingNtB6_14SharingService12open_browser0B8_
FN:23,_RNvMNtCs4PyLZvEkasu_7gittype7sharingNtB2_15SharingPlatform3all
FN:14,_RNvMNtCs4PyLZvEkasu_7gittype7sharingNtB2_15SharingPlatform4name
FN:94,_RNvMs_NtCs4PyLZvEkasu_7gittype7sharingNtB4_14SharingService12open_browser
FN:31,_RNvMs_NtCs4PyLZvEkasu_7gittype7sharingNtB4_14SharingService12share_result
FN:84,_RNvMs_NtCs4PyLZvEkasu_7gittype7sharingNtB4_14SharingService17create_share_text
FN:46,_RNvMs_NtCs4PyLZvEkasu_7gittype7sharingNtB4_14SharingService18generate_share_url
FN:98,_RNvMs_NtCs4PyLZvEkasu_7gittype7sharingNtB4_14SharingService20display_url_fallback
FN:95,_RNCNvMs_NtCscZjyiejqBjN_7gittype7sharingNtB6_14SharingService12open_browser0B8_
FN:23,_RNvMNtCscZjyiejqBjN_7gittype7sharingNtB2_15SharingPlatform3all
FN:14,_RNvMNtCscZjyiejqBjN_7gittype7sharingNtB2_15SharingPlatform4name
FN:94,_RNvMs_NtCscZjyiejqBjN_7gittype7sharingNtB4_14SharingService12open_browser
FN:31,_RNvMs_NtCscZjyiejqBjN_7gittype7sharingNtB4_14SharingService12share_result
FN:84,_RNvMs_NtCscZjyiejqBjN_7gittype7sharingNtB4_14SharingService17create_share_text
FN:46,_RNvMs_NtCscZjyiejqBjN_7gittype7sharingNtB4_14SharingService18generate_share_url
FN:98,_RNvMs_NtCscZjyiejqBjN_7gittype7sharingNtB4_14SharingService20display_url_fallback
FNDA:0,_RNCNvMs_NtCs4PyLZvEkasu_7gittype7sharingNtB6_14SharingService12open_browser0B8_
FNDA:0,_RNvMNtCs4PyLZvEkasu_7gittype7sharingNtB2_15SharingPlatform3all
FNDA:0,_RNvMNtCs4PyLZvEkasu_7gittype7sharingNtB2_15SharingPlatform4name
FNDA:0,_RNvMs_NtCs4PyLZvEkasu_7gittype7sharingNtB4_14SharingService12open_browser
FNDA:0,_RNvMs_NtCs4PyLZvEkasu_7gittype7sharingNtB4_14SharingService12share_result
FNDA:0,_RNvMs_NtCs4PyLZvEkasu_7gittype7sharingNtB4_14SharingService17create_share_text
FNDA:0,_RNvMs_NtCs4PyLZvEkasu_7gittype7sharingNtB4_14SharingService18generate_share_url
FNDA:0,_RNvMs_NtCs4PyLZvEkasu_7gittype7sharingNtB4_14SharingService20display_url_fallback
FNDA:0,_RNCNvMs_NtCscZjyiejqBjN_7gittype7sharingNtB6_14SharingService12open_browser0B8_
FNDA:0,_RNvMNtCscZjyiejqBjN_7gittype7sharingNtB2_15SharingPlatform3all
FNDA:0,_RNvMNtCscZjyiejqBjN_7gittype7sharingNtB2_15SharingPlatform4name
FNDA:0,_RNvMs_NtCscZjyiejqBjN_7gittype7sharingNtB4_14SharingService12open_browser
FNDA:0,_RNvMs_NtCscZjyiejqBjN_7gittype7sharingNtB4_14SharingService12share_result
FNDA:0,_RNvMs_NtCscZjyiejqBjN_7gittype7sharingNtB4_14SharingService17create_share_text
FNDA:0,_RNvMs_NtCscZjyiejqBjN_7gittype7sharingNtB4_14SharingService18generate_share_url
FNDA:0,_RNvMs_NtCscZjyiejqBjN_7gittype7sharingNtB4_14SharingService20display_url_fallback
FNF:8
FNH:0
DA:14,0
DA:15,0
DA:16,0
DA:17,0
DA:18,0
DA:19,0
DA:21,0
DA:23,0
DA:24,0
DA:25,0
DA:31,0
DA:32,0
DA:34,0
DA:37,0
DA:41,0
DA:44,0
DA:46,0
DA:47,0
DA:49,0
DA:51,0
DA:52,0
DA:53,0
DA:57,0
DA:58,0
DA:61,0
DA:62,0
DA:63,0
DA:64,0
DA:68,0
DA:69,0
DA:70,0
DA:75,0
DA:76,0
DA:77,0
DA:78,0
DA:82,0
DA:84,0
DA:85,0
DA:86,0
DA:92,0
DA:94,0
DA:95,0
DA:96,0
DA:98,0
DA:108,0
DA:109,0
DA:111,0
DA:112,0
DA:113,0
DA:116,0
DA:117,0
DA:118,0
DA:119,0
DA:120,0
DA:123,0
DA:124,0
DA:125,0
DA:128,0
DA:129,0
DA:130,0
DA:131,0
DA:133,0
DA:134,0
DA:135,0
DA:136,0
DA:139,0
DA:140,0
DA:141,0
DA:142,0
DA:143,0
DA:146,0
DA:147,0
DA:148,0
DA:151,0
DA:152,0
DA:153,0
DA:154,0
DA:155,0
DA:156,0
DA:159,0
DA:160,0
DA:161,0
DA:162,0
DA:163,0
DA:164,0
DA:166,0
DA:170,0
DA:171,0
DA:172,0
DA:173,0
DA:174,0
DA:175,0
DA:176,0
DA:179,0
DA:180,0
BRF:0
BRH:0
LF:96
LH:0
end_of_record
SF:/home/owner/.ghq/github.com/unhappychoice/gittype/src/storage/database.rs
FN:15,_RNvMNtNtCscZjyiejqBjN_7gittype7storage8databaseNtB2_8Database11init_tables
FN:10,_RNvMNtNtCscZjyiejqBjN_7gittype7storage8databaseNtB2_8Database3new
FNDA:0,_RNvMNtNtCscZjyiejqBjN_7gittype7storage8databaseNtB2_8Database11init_tables
FNDA:0,_RNvMNtNtCscZjyiejqBjN_7gittype7storage8databaseNtB2_8Database3new
FNF:2
FNH:0
DA:10,0
DA:11,0
DA:12,0
DA:13,0
DA:15,0
DA:17,0
DA:18,0
BRF:0
BRH:0
LF:7
LH:0
end_of_record
SF:/home/owner/.ghq/github.com/unhappychoice/gittype/src/storage/history.rs
FN:16,_RNvMs_NtNtCs4PyLZvEkasu_7gittype7storage7historyNtB4_14SessionHistory11get_history
FN:12,_RNvMs_NtNtCs4PyLZvEkasu_7gittype7storage7historyNtB4_14SessionHistory3new
FN:6,_RNvXNtNtCs4PyLZvEkasu_7gittype7storage7historyNtB2_14SessionHistoryNtNtCs66KPHxksi63_4core7default7Default7default
FN:16,_RNvMs_NtNtCscZjyiejqBjN_7gittype7storage7historyNtB4_14SessionHistory11get_history
FN:12,_RNvMs_NtNtCscZjyiejqBjN_7gittype7storage7historyNtB4_14SessionHistory3new
FN:6,_RNvXNtNtCscZjyiejqBjN_7gittype7storage7historyNtB2_14SessionHistoryNtNtCs66KPHxksi63_4core7default7Default7default
FNDA:0,_RNvMs_NtNtCs4PyLZvEkasu_7gittype7storage7historyNtB4_14SessionHistory11get_history
FNDA:0,_RNvMs_NtNtCs4PyLZvEkasu_7gittype7storage7historyNtB4_14SessionHistory3new
FNDA:0,_RNvXNtNtCs4PyLZvEkasu_7gittype7storage7historyNtB2_14SessionHistoryNtNtCs66KPHxksi63_4core7default7Default7default
FNDA:0,_RNvMs_NtNtCscZjyiejqBjN_7gittype7storage7historyNtB4_14SessionHistory11get_history
FNDA:0,_RNvMs_NtNtCscZjyiejqBjN_7gittype7storage7historyNtB4_14SessionHistory3new
FNDA:0,_RNvXNtNtCscZjyiejqBjN_7gittype7storage7historyNtB2_14SessionHistoryNtNtCs66KPHxksi63_4core7default7Default7default
FNF:3
FNH:0
DA:6,0
DA:7,0
DA:8,0
DA:12,0
DA:13,0
DA:14,0
DA:16,0
DA:18,0
DA:19,0
BRF:0
BRH:0
LF:9
LH:0
end_of_record